gpasm-1.4.0 #1107 (May  9 2015) build/default   1-6-2017  19:28:11          PAGE  1


LOC    OBJECT CODE    LINE  SOURCE TEXT
  VALUE

                      00001 ;--------------------------------------------------------
                      00002 ; File Created by SDCC : free open source ANSI-C Compiler
                      00003 ; Version 3.6.0 #9615 (Linux)
                      00004 ;--------------------------------------------------------
                      00005 ; PIC port for the 14-bit core
                      00006 ;--------------------------------------------------------
                      00007 ;       .file   "main.c"
                      00008         list    p=16f690
                      00009         radix dec
                      00010         include "p16f690.inc"
                      00001         LIST
                      00002 
                      00003 ;==========================================================================
                      00004 ; Build date : Aug 07 2014
                      00005 ;  MPASM PIC16F690 processor include
                      00006 ; 
                      00007 ;  (c) Copyright 1999-2014 Microchip Technology, All rights reserved
                      00008 ;==========================================================================
                      00009 
                      00757         LIST
                      00011 ;--------------------------------------------------------
                      00012 ; config word(s)
                      00013 ;--------------------------------------------------------
2007   0000           00014         __config 0x3fd4
                      00015 ;--------------------------------------------------------
                      00016 ; external declarations
                      00017 ;--------------------------------------------------------
  0000                00018         extern  _init
  0000                00019         extern  __moduint
  0000                00020         extern  __divuint
  0000                00021         extern  _STATUSbits
  0000                00022         extern  _PORTAbits
  0000                00023         extern  _PORTBbits
  0000                00024         extern  _PORTCbits
  0000                00025         extern  _INTCONbits
  0000                00026         extern  _PIR1bits
  0000                00027         extern  _PIR2bits
  0000                00028         extern  _T1CONbits
  0000                00029         extern  _T2CONbits
  0000                00030         extern  _SSPCONbits
  0000                00031         extern  _CCP1CONbits
  0000                00032         extern  _RCSTAbits
  0000                00033         extern  _PWM1CONbits
  0000                00034         extern  _ECCPASbits
  0000                00035         extern  _ADCON0bits
  0000                00036         extern  _OPTION_REGbits
  0000                00037         extern  _TRISAbits
  0000                00038         extern  _TRISBbits
  0000                00039         extern  _TRISCbits
  0000                00040         extern  _PIE1bits
  0000                00041         extern  _PIE2bits
  0000                00042         extern  _PCONbits
  0000                00043         extern  _OSCCONbits
gpasm-1.4.0 #1107 (May  9 2015) build/default   1-6-2017  19:28:11          PAGE  2


LOC    OBJECT CODE    LINE  SOURCE TEXT
  VALUE

  0000                00044         extern  _OSCTUNEbits
  0000                00045         extern  _MSKbits
  0000                00046         extern  _SSPMSKbits
  0000                00047         extern  _SSPSTATbits
  0000                00048         extern  _WPUbits
  0000                00049         extern  _WPUAbits
  0000                00050         extern  _IOCbits
  0000                00051         extern  _IOCAbits
  0000                00052         extern  _WDTCONbits
  0000                00053         extern  _TXSTAbits
  0000                00054         extern  _SPBRGbits
  0000                00055         extern  _SPBRGHbits
  0000                00056         extern  _BAUDCTLbits
  0000                00057         extern  _ADCON1bits
  0000                00058         extern  _WPUBbits
  0000                00059         extern  _IOCBbits
  0000                00060         extern  _VRCONbits
  0000                00061         extern  _CM1CON0bits
  0000                00062         extern  _CM2CON0bits
  0000                00063         extern  _CM2CON1bits
  0000                00064         extern  _ANSELbits
  0000                00065         extern  _ANSELHbits
  0000                00066         extern  _EECON1bits
  0000                00067         extern  _PSTRCONbits
  0000                00068         extern  _SRCONbits
  0000                00069         extern  _INDF
  0000                00070         extern  _TMR0
  0000                00071         extern  _PCL
  0000                00072         extern  _STATUS
  0000                00073         extern  _FSR
  0000                00074         extern  _PORTA
  0000                00075         extern  _PORTB
  0000                00076         extern  _PORTC
  0000                00077         extern  _PCLATH
  0000                00078         extern  _INTCON
  0000                00079         extern  _PIR1
  0000                00080         extern  _PIR2
  0000                00081         extern  _TMR1
  0000                00082         extern  _TMR1L
  0000                00083         extern  _TMR1H
  0000                00084         extern  _T1CON
  0000                00085         extern  _TMR2
  0000                00086         extern  _T2CON
  0000                00087         extern  _SSPBUF
  0000                00088         extern  _SSPCON
  0000                00089         extern  _CCPR
  0000                00090         extern  _CCPR1L
  0000                00091         extern  _CCPR1H
  0000                00092         extern  _CCP1CON
  0000                00093         extern  _RCSTA
  0000                00094         extern  _TXREG
  0000                00095         extern  _RCREG
  0000                00096         extern  _PWM1CON
gpasm-1.4.0 #1107 (May  9 2015) build/default   1-6-2017  19:28:11          PAGE  3


LOC    OBJECT CODE    LINE  SOURCE TEXT
  VALUE

  0000                00097         extern  _ECCPAS
  0000                00098         extern  _ADRESH
  0000                00099         extern  _ADCON0
  0000                00100         extern  _OPTION_REG
  0000                00101         extern  _TRISA
  0000                00102         extern  _TRISB
  0000                00103         extern  _TRISC
  0000                00104         extern  _PIE1
  0000                00105         extern  _PIE2
  0000                00106         extern  _PCON
  0000                00107         extern  _OSCCON
  0000                00108         extern  _OSCTUNE
  0000                00109         extern  _PR2
  0000                00110         extern  _MSK
  0000                00111         extern  _SSPADD
  0000                00112         extern  _SSPMSK
  0000                00113         extern  _SSPSTAT
  0000                00114         extern  _WPU
  0000                00115         extern  _WPUA
  0000                00116         extern  _IOC
  0000                00117         extern  _IOCA
  0000                00118         extern  _WDTCON
  0000                00119         extern  _TXSTA
  0000                00120         extern  _SPBRG
  0000                00121         extern  _SPBRGH
  0000                00122         extern  _BAUDCTL
  0000                00123         extern  _ADRESL
  0000                00124         extern  _ADCON1
  0000                00125         extern  _EEDAT
  0000                00126         extern  _EEDATA
  0000                00127         extern  _EEADR
  0000                00128         extern  _EEDATH
  0000                00129         extern  _EEADRH
  0000                00130         extern  _WPUB
  0000                00131         extern  _IOCB
  0000                00132         extern  _VRCON
  0000                00133         extern  _CM1CON0
  0000                00134         extern  _CM2CON0
  0000                00135         extern  _CM2CON1
  0000                00136         extern  _ANSEL
  0000                00137         extern  _ANSELH
  0000                00138         extern  _EECON1
  0000                00139         extern  _EECON2
  0000                00140         extern  _PSTRCON
  0000                00141         extern  _SRCON
  0000                00142         extern  ___sdcc_saved_fsr
  0000                00143         extern  __gptrget1
  0000                00144         extern  __sdcc_gsinit_startup
                      00145 ;--------------------------------------------------------
                      00146 ; global declarations
                      00147 ;--------------------------------------------------------
  0000                00148         global  _SP_send_error
  0000                00149         global  _SP_send
gpasm-1.4.0 #1107 (May  9 2015) build/default   1-6-2017  19:28:11          PAGE  4


LOC    OBJECT CODE    LINE  SOURCE TEXT
  VALUE

  0000                00150         global  _dec_to_ascii
  0000                00151         global  _circBufPush
  0000                00152         global  _receive_intr
  0000                00153         global  _main
  0000                00154         global  _bitfield
  0000                00155         global  _w
  0000                00156         global  _t
  0000                00157         global  _w1
  0000                00158         global  _t1
  0000                00159         global  _buf
  0000                00160         global  _buf_head
  0000                00161         global  _buf_tail
  0000                00162         global  _int_error_cnt
  0000                00163         global  _strV0
  0000                00164         global  _strV1
  0000                00165         global  _strVF
  0000                00166         global  _strw
  0000                00167         global  _strt
  0000                00168         global  _strw1
  0000                00169         global  _strt1
  0000                00170         global  _tab
  0000                00171         global  _enter
  0000                00172         global  _sync
  0000                00173         global  _int_err
  0000                00174         global  _buf_err
                      00175 
  0000                00176         global PSAVE
  0000                00177         global SSAVE
  0000                00178         global WSAVE
  0000                00179         global STK12
  0000                00180         global STK11
  0000                00181         global STK10
  0000                00182         global STK09
  0000                00183         global STK08
  0000                00184         global STK07
  0000                00185         global STK06
  0000                00186         global STK05
  0000                00187         global STK04
  0000                00188         global STK03
  0000                00189         global STK02
  0000                00190         global STK01
  0000                00191         global STK00
                      00192 
                      00193 sharebank udata_ovr 0x0070
0070                  00194 PSAVE   res 1
0071                  00195 SSAVE   res 1
0072                  00196 WSAVE   res 1
0073                  00197 STK12   res 1
0074                  00198 STK11   res 1
0075                  00199 STK10   res 1
0076                  00200 STK09   res 1
0077                  00201 STK08   res 1
0078                  00202 STK07   res 1
gpasm-1.4.0 #1107 (May  9 2015) build/default   1-6-2017  19:28:11          PAGE  5


LOC    OBJECT CODE    LINE  SOURCE TEXT
  VALUE

0079                  00203 STK06   res 1
007A                  00204 STK05   res 1
007B                  00205 STK04   res 1
007C                  00206 STK03   res 1
007D                  00207 STK02   res 1
007E                  00208 STK01   res 1
007F                  00209 STK00   res 1
                      00210 
                      00211 ;--------------------------------------------------------
                      00212 ; global definitions
                      00213 ;--------------------------------------------------------
                      00214 UD_main_0       udata
0000                  00215 _bitfield       res     1
                      00216 
                      00217 UD_main_1       udata
0000                  00218 _buf    res     16
                      00219 
                      00220 ;--------------------------------------------------------
                      00221 ; absolute symbol definitions
                      00222 ;--------------------------------------------------------
                      00223 ;--------------------------------------------------------
                      00224 ; compiler-defined variables
                      00225 ;--------------------------------------------------------
                      00226 UDL_main_0      udata
0000                  00227 r0x1041 res     1
0001                  00228 r0x1042 res     1
0002                  00229 r0x1043 res     1
0003                  00230 r0x103F res     1
0004                  00231 r0x103E res     1
0005                  00232 r0x1040 res     1
0006                  00233 r0x1029 res     1
0007                  00234 r0x102A res     1
0008                  00235 r0x102C res     1
0009                  00236 r0x102B res     1
000A                  00237 r0x102D res     1
000B                  00238 r0x1037 res     1
000C                  00239 r0x1036 res     1
000D                  00240 r0x1038 res     1
000E                  00241 r0x1039 res     1
000F                  00242 r0x103A res     1
0010                  00243 r0x103D res     1
0011                  00244 r0x1030 res     1
0012                  00245 r0x102F res     1
0013                  00246 r0x102E res     1
0014                  00247 r0x1031 res     1
0015                  00248 r0x1032 res     1
0016                  00249 r0x1033 res     1
0017                  00250 r0x1034 res     1
0018                  00251 r0x1035 res     1
0019                  00252 r0x1023 res     1
001A                  00253 r0x1022 res     1
001B                  00254 r0x1021 res     1
001C                  00255 r0x1024 res     1
gpasm-1.4.0 #1107 (May  9 2015) build/default   1-6-2017  19:28:11          PAGE  6


LOC    OBJECT CODE    LINE  SOURCE TEXT
  VALUE

001D                  00256 r0x1025 res     1
001E                  00257 r0x1026 res     1
001F                  00258 r0x1027 res     1
0020                  00259 r0x1028 res     1
0021                  00260 _dec_to_ascii_number_1_20       res     4
                      00261 ;--------------------------------------------------------
                      00262 ; initialized data
                      00263 ;--------------------------------------------------------
                      00264 
                      00265 ID_main_0       idata
0000                  00266 _w
0000   00 00          00267         db      0x00, 0x00
                      00268 
                      00269 
                      00270 ID_main_1       idata
0000                  00271 _t
0000   00 00          00272         db      0x00, 0x00
                      00273 
                      00274 
                      00275 ID_main_2       idata
0000                  00276 _w1
0000   00 00          00277         db      0x00, 0x00
                      00278 
                      00279 
                      00280 ID_main_3       idata
0000                  00281 _t1
0000   00 00          00282         db      0x00, 0x00
                      00283 
                      00284 
                      00285 ID_main_4       idata
0000                  00286 _buf_head
0000   00             00287         db      0x00
                      00288 
                      00289 
                      00290 ID_main_5       idata
0000                  00291 _buf_tail
0000   00             00292         db      0x00
                      00293 
                      00294 
                      00295 ID_main_6       idata
0000                  00296 _int_error_cnt
0000   00             00297         db      0x00
                      00298 
                      00299 
                      00300 ID_main_7       code
0000                  00301 _strV0
0000   3430           00302         retlw 0x30
0001   3420           00303         retlw 0x20
0002   340A           00304         retlw 0x0a
0003   3400           00305         retlw 0x00
                      00306 
                      00307 
                      00308 ID_main_8       code
gpasm-1.4.0 #1107 (May  9 2015) build/default   1-6-2017  19:28:11          PAGE  7


LOC    OBJECT CODE    LINE  SOURCE TEXT
  VALUE

0000                  00309 _strV1
0000   3431           00310         retlw 0x31
0001   3420           00311         retlw 0x20
0002   340A           00312         retlw 0x0a
0003   3400           00313         retlw 0x00
                      00314 
                      00315 
                      00316 ID_main_9       code
0000                  00317 _strVF
0000   3446           00318         retlw 0x46
0001   3420           00319         retlw 0x20
0002   340A           00320         retlw 0x0a
0003   3400           00321         retlw 0x00
                      00322 
                      00323 
                      00324 ID_main_10      code
0000                  00325 _strw
0000   3477           00326         retlw 0x77
0001   343A           00327         retlw 0x3a
0002   3420           00328         retlw 0x20
0003   3400           00329         retlw 0x00
                      00330 
                      00331 
                      00332 ID_main_11      code
0000                  00333 _strt
0000   3474           00334         retlw 0x74
0001   343A           00335         retlw 0x3a
0002   3420           00336         retlw 0x20
0003   3400           00337         retlw 0x00
                      00338 
                      00339 
                      00340 ID_main_12      code
0000                  00341 _strw1
0000   3477           00342         retlw 0x77
0001   3431           00343         retlw 0x31
0002   343A           00344         retlw 0x3a
0003   3420           00345         retlw 0x20
0004   3400           00346         retlw 0x00
                      00347 
                      00348 
                      00349 ID_main_13      code
0000                  00350 _strt1
0000   3474           00351         retlw 0x74
0001   3431           00352         retlw 0x31
0002   343A           00353         retlw 0x3a
0003   3420           00354         retlw 0x20
0004   3400           00355         retlw 0x00
                      00356 
                      00357 
                      00358 ID_main_14      code
0000                  00359 _tab
0000   3409           00360         retlw 0x09
0001   3400           00361         retlw 0x00
gpasm-1.4.0 #1107 (May  9 2015) build/default   1-6-2017  19:28:11          PAGE  8


LOC    OBJECT CODE    LINE  SOURCE TEXT
  VALUE

                      00362 
                      00363 
                      00364 ID_main_15      code
0000                  00365 _enter
0000   340A           00366         retlw 0x0a
0001   3400           00367         retlw 0x00
                      00368 
                      00369 
                      00370 ID_main_16      code
0000                  00371 _sync
0000   3453           00372         retlw 0x53
0001   3459           00373         retlw 0x59
0002   344E           00374         retlw 0x4e
0003   3443           00375         retlw 0x43
0004   340A           00376         retlw 0x0a
0005   3400           00377         retlw 0x00
                      00378 
                      00379 
                      00380 ID_main_17      code
0000                  00381 _int_err
0000   3449           00382         retlw 0x49
0001   344E           00383         retlw 0x4e
0002   3454           00384         retlw 0x54
0003   3420           00385         retlw 0x20
0004   3445           00386         retlw 0x45
0005   3452           00387         retlw 0x52
0006   3452           00388         retlw 0x52
0007   340A           00389         retlw 0x0a
0008   3400           00390         retlw 0x00
                      00391 
                      00392 
                      00393 ID_main_18      code
0000                  00394 _buf_err
0000   3442           00395         retlw 0x42
0001   3455           00396         retlw 0x55
0002   3446           00397         retlw 0x46
0003   3446           00398         retlw 0x46
0004   3445           00399         retlw 0x45
0005   3452           00400         retlw 0x52
0006   3420           00401         retlw 0x20
0007   344F           00402         retlw 0x4f
0008   3457           00403         retlw 0x57
0009   3445           00404         retlw 0x45
000A   3452           00405         retlw 0x52
000B   3446           00406         retlw 0x46
000C   344C           00407         retlw 0x4c
000D   344F           00408         retlw 0x4f
000E   3457           00409         retlw 0x57
000F   340A           00410         retlw 0x0a
0010   3400           00411         retlw 0x00
                      00412 
                      00413 ;--------------------------------------------------------
                      00414 ; overlayable items in internal ram 
gpasm-1.4.0 #1107 (May  9 2015) build/default   1-6-2017  19:28:11          PAGE  9


LOC    OBJECT CODE    LINE  SOURCE TEXT
  VALUE

                      00415 ;--------------------------------------------------------
                      00416 ;       udata_ovr
                      00417 ;--------------------------------------------------------
                      00418 ; reset vector 
                      00419 ;--------------------------------------------------------
                      00420 STARTUP code 0x0000
0000   0000           00421         nop
0001   ????           00422         pagesel __sdcc_gsinit_startup
0002   2???           00423         goto    __sdcc_gsinit_startup
                      00424 ;--------------------------------------------------------
                      00425 ; interrupt and initialization code
                      00426 ;--------------------------------------------------------
                      00427 c_interrupt     code    0x0004
0004                  00428 __sdcc_interrupt:
                      00429 ;***
                      00430 ;  pBlock Stats: dbName = I
                      00431 ;***
                      00432 ;functions called:
                      00433 ;   _SP_send_error
                      00434 ;   _SP_send_error
                      00435 ;5 compiler assigned registers:
                      00436 ;   r0x1041
                      00437 ;   r0x1042
                      00438 ;   r0x1043
                      00439 ;   STK01
                      00440 ;   STK00
                      00441 ;; Starting pCode block
0004                  00442 _receive_intr:
                      00443 ; 0 exit points
                      00444 ;       .line   84; "main.c"    void receive_intr() __interrupt 0 {
0004   00??           00445         MOVWF   WSAVE
0005   0E03           00446         SWAPF   STATUS,W
0006   0183           00447         CLRF    STATUS
0007   00??           00448         MOVWF   SSAVE
0008   080A           00449         MOVF    PCLATH,W
0009   018A           00450         CLRF    PCLATH
000A   00??           00451         MOVWF   PSAVE
000B   0804           00452         MOVF    FSR,W
000C   ???? ????      00453         BANKSEL ___sdcc_saved_fsr
000E   00??           00454         MOVWF   ___sdcc_saved_fsr
                      00455 ;       .line   86; "main.c"    if(TXIF){
000F   ???? ????      00456         BANKSEL _PIR1bits
0011   1E??           00457         BTFSS   _PIR1bits,4
0012   2???           00458         GOTO    _00111_DS_
                      00459 ;       .line   88; "main.c"    if (buf_head == buf_tail){
0013   ???? ????      00460         BANKSEL _buf_tail
0015   08??           00461         MOVF    _buf_tail,W
0016   ???? ????      00462         BANKSEL _buf_head
0018   06??           00463         XORWF   _buf_head,W
0019   1D03           00464         BTFSS   STATUS,2
001A   2???           00465         GOTO    _00108_DS_
                      00466 ;       .line   89; "main.c"    TXIE = 0;
001B   ???? ????      00467         BANKSEL _PIE1bits
gpasm-1.4.0 #1107 (May  9 2015) build/default   1-6-2017  19:28:11          PAGE 10


LOC    OBJECT CODE    LINE  SOURCE TEXT
  VALUE

001D   12??           00468         BCF     _PIE1bits,4
001E   2???           00469         GOTO    _00111_DS_
001F                  00470 _00108_DS_:
                      00471 ;       .line   94; "main.c"    TXREG = buf[buf_tail];
001F   ???? ????      00472         BANKSEL _buf_tail
0021   08??           00473         MOVF    _buf_tail,W
0022   3E??           00474         ADDLW   (_buf + 0)
0023   ???? ????      00475         BANKSEL r0x1041
0025   00??           00476         MOVWF   r0x1041
0026   30??           00477         MOVLW   high (_buf + 0)
0027   1803           00478         BTFSC   STATUS,0
0028   3E01           00479         ADDLW   0x01
0029   00??           00480         MOVWF   r0x1042
002A   08??           00481         MOVF    r0x1041,W
002B   1283 1303      00482         BANKSEL FSR
002D   0084           00483         MOVWF   FSR
002E   1383           00484         BCF     STATUS,7
002F   ???? ????      00485         BANKSEL r0x1042
0031   18??           00486         BTFSC   r0x1042,0
0032   1783           00487         BSF     STATUS,7
0033   1283 1303      00488         BANKSEL INDF
0035   0800           00489         MOVF    INDF,W
0036   00??           00490         MOVWF   _TXREG
                      00491 ;       .line   95; "main.c"    buf[buf_tail] = 0;  // clear the data (optional)
0037   ???? ????      00492         BANKSEL r0x1041
0039   08??           00493         MOVF    r0x1041,W
003A   1283 1303      00494         BANKSEL FSR
003C   0084           00495         MOVWF   FSR
003D   1383           00496         BCF     STATUS,7
003E   ???? ????      00497         BANKSEL r0x1042
0040   18??           00498         BTFSC   r0x1042,0
0041   1783           00499         BSF     STATUS,7
0042   3000           00500         MOVLW   0x00
0043   1283 1303      00501         BANKSEL INDF
0045   0080           00502         MOVWF   INDF
                      00503 ;       .line   97; "main.c"    next = buf_tail + 1;
0046   ???? ????      00504         BANKSEL _buf_tail
0048   08??           00505         MOVF    _buf_tail,W
0049   ???? ????      00506         BANKSEL r0x1041
004B   00??           00507         MOVWF   r0x1041
004C   01??           00508         CLRF    r0x1042
004D   0A??           00509         INCF    r0x1041,F
004E   1903           00510         BTFSC   STATUS,2
004F   0A??           00511         INCF    r0x1042,F
                      00512 ;;signed compare: left < lit(0x10=16), size=2, mask=ffff
                      00513 ;       .line   98; "main.c"    if(next >= BUF_SIZE)
0050   08??           00514         MOVF    r0x1042,W
0051   3E80           00515         ADDLW   0x80
0052   3E80           00516         ADDLW   0x80
0053   1D03           00517         BTFSS   STATUS,2
0054   2???           00518         GOTO    _00139_DS_
0055   3010           00519         MOVLW   0x10
0056   02??           00520         SUBWF   r0x1041,W
gpasm-1.4.0 #1107 (May  9 2015) build/default   1-6-2017  19:28:11          PAGE 11


LOC    OBJECT CODE    LINE  SOURCE TEXT
  VALUE

0057                  00521 _00139_DS_:
0057   1C03           00522         BTFSS   STATUS,0
0058   2???           00523         GOTO    _00106_DS_
                      00524 ;;genSkipc:3257: created from rifx:0x7fffe35b3b10
                      00525 ;       .line   99; "main.c"    next = 0;
0059   ???? ????      00526         BANKSEL r0x1041
005B   01??           00527         CLRF    r0x1041
005C   01??           00528         CLRF    r0x1042
005D                  00529 _00106_DS_:
                      00530 ;       .line   101; "main.c"   buf_tail = next;
005D   ???? ????      00531         BANKSEL r0x1041
005F   08??           00532         MOVF    r0x1041,W
0060   ???? ????      00533         BANKSEL _buf_tail
0062   00??           00534         MOVWF   _buf_tail
0063                  00535 _00111_DS_:
                      00536 ;       .line   105; "main.c"   if(CCP1IF){
0063   ???? ????      00537         BANKSEL _PIR1bits
0065   1D??           00538         BTFSS   _PIR1bits,2
0066   2???           00539         GOTO    _00116_DS_
                      00540 ;       .line   106; "main.c"   CCP1IE = FALSE;
0067   ???? ????      00541         BANKSEL _PIE1bits
0069   11??           00542         BCF     _PIE1bits,2
                      00543 ;       .line   108; "main.c"   if(CCP1M0){                     // if ECCP mode is Rising edge CCP1M0
006A   ???? ????      00544         BANKSEL _CCP1CONbits
006C   1C??           00545         BTFSS   _CCP1CONbits,0
006D   2???           00546         GOTO    _00113_DS_
                      00547 ;       .line   109; "main.c"   CCP1M0 = FALING;                 // set falling edge
006E   10??           00548         BCF     _CCP1CONbits,0
                      00549 ;       .line   110; "main.c"   TMR1H = 0;
006F   01??           00550         CLRF    _TMR1H
                      00551 ;       .line   111; "main.c"   TMR1L = 0;
0070   01??           00552         CLRF    _TMR1L
                      00553 ;       .line   112; "main.c"   t = 0x0000 | CCPR1H;        //ECCP result higher 8 bits
0071   08??           00554         MOVF    _CCPR1H,W
0072   ???? ????      00555         BANKSEL r0x1041
0074   00??           00556         MOVWF   r0x1041
0075   ???? ????      00557         BANKSEL _t
0077   00??           00558         MOVWF   _t
0078   01??           00559         CLRF    (_t + 1)
                      00560 ;       .line   113; "main.c"   t = t << 8;
0079   08??           00561         MOVF    _t,W
007A   00??           00562         MOVWF   (_t + 1)
007B   01??           00563         CLRF    _t
                      00564 ;       .line   114; "main.c"   t = t | CCPR1L;             //ECCP combined 16 bit number formation
007C   ???? ????      00565         BANKSEL _CCPR1L
007E   08??           00566         MOVF    _CCPR1L,W
007F   ???? ????      00567         BANKSEL r0x1041
0081   00??           00568         MOVWF   r0x1041
0082   01??           00569         CLRF    r0x1042
0083   08??           00570         MOVF    r0x1041,W
0084   ???? ????      00571         BANKSEL _t
0086   04??           00572         IORWF   _t,F
0087   3000           00573         MOVLW   0x00
gpasm-1.4.0 #1107 (May  9 2015) build/default   1-6-2017  19:28:11          PAGE 12


LOC    OBJECT CODE    LINE  SOURCE TEXT
  VALUE

0088   04??           00574         IORWF   (_t + 1),F
                      00575 ;       .line   115; "main.c"   bitfield.Capture = TRUE;
0089   ???? ????      00576         BANKSEL _bitfield
008B   14??           00577         BSF     _bitfield,0
008C   2???           00578         GOTO    _00114_DS_
008D                  00579 _00113_DS_:
                      00580 ;       .line   118; "main.c"   CCP1M0 = RISING;
008D   ???? ????      00581         BANKSEL _CCP1CONbits
008F   14??           00582         BSF     _CCP1CONbits,0
                      00583 ;       .line   119; "main.c"   w = 0x0000 | CCPR1H;        //ECCP result higher 8 bits
0090   08??           00584         MOVF    _CCPR1H,W
0091   ???? ????      00585         BANKSEL r0x1041
0093   00??           00586         MOVWF   r0x1041
0094   ???? ????      00587         BANKSEL _w
0096   00??           00588         MOVWF   _w
0097   01??           00589         CLRF    (_w + 1)
                      00590 ;       .line   120; "main.c"   w = w << 8;
0098   08??           00591         MOVF    _w,W
0099   00??           00592         MOVWF   (_w + 1)
009A   01??           00593         CLRF    _w
                      00594 ;       .line   121; "main.c"   w = w | CCPR1L;             //ECCP combined 16 bit number formation
009B   ???? ????      00595         BANKSEL _CCPR1L
009D   08??           00596         MOVF    _CCPR1L,W
009E   ???? ????      00597         BANKSEL r0x1041
00A0   00??           00598         MOVWF   r0x1041
00A1   01??           00599         CLRF    r0x1042
00A2   08??           00600         MOVF    r0x1041,W
00A3   ???? ????      00601         BANKSEL _w
00A5   04??           00602         IORWF   _w,F
00A6   3000           00603         MOVLW   0x00
00A7   04??           00604         IORWF   (_w + 1),F
00A8                  00605 _00114_DS_:
                      00606 ;       .line   124; "main.c"   CCP1IE = 1;
00A8   ???? ????      00607         BANKSEL _PIE1bits
00AA   15??           00608         BSF     _PIE1bits,2
                      00609 ;       .line   125; "main.c"   CCP1IF = 0;                     //Clear interrupt flag
00AB   ???? ????      00610         BANKSEL _PIR1bits
00AD   11??           00611         BCF     _PIR1bits,2
00AE                  00612 _00116_DS_:
                      00613 ;       .line   127; "main.c"   int_error_cnt++;
00AE   ???? ????      00614         BANKSEL _int_error_cnt
00B0   0A??           00615         INCF    _int_error_cnt,F
                      00616 ;;swapping arguments (AOP_TYPEs 1/3)
                      00617 ;;unsigned compare: left >= lit(0x65=101), size=1
                      00618 ;       .line   128; "main.c"   if (int_error_cnt > 100)
00B1   3065           00619         MOVLW   0x65
00B2   02??           00620         SUBWF   _int_error_cnt,W
00B3   1C03           00621         BTFSS   STATUS,0
00B4   2???           00622         GOTO    _00119_DS_
                      00623 ;;genSkipc:3257: created from rifx:0x7fffe35b3b10
                      00624 ;       .line   129; "main.c"   SP_send_error(int_err);
00B5   30??           00625         MOVLW   high (_int_err + 0)
00B6   ???? ????      00626         BANKSEL r0x1042
gpasm-1.4.0 #1107 (May  9 2015) build/default   1-6-2017  19:28:11          PAGE 13


LOC    OBJECT CODE    LINE  SOURCE TEXT
  VALUE

00B8   00??           00627         MOVWF   r0x1042
00B9   30??           00628         MOVLW   (_int_err + 0)
00BA   00??           00629         MOVWF   r0x1041
00BB   3080           00630         MOVLW   0x80
00BC   00??           00631         MOVWF   r0x1043
00BD   08??           00632         MOVF    r0x1041,W
00BE   00??           00633         MOVWF   STK01
00BF   08??           00634         MOVF    r0x1042,W
00C0   00??           00635         MOVWF   STK00
00C1   08??           00636         MOVF    r0x1043,W
00C2   ????           00637         PAGESEL _SP_send_error
00C3   2???           00638         CALL    _SP_send_error
00C4   ????           00639         PAGESEL $
00C5                  00640 _00119_DS_:
00C5   ???? ????      00641         BANKSEL ___sdcc_saved_fsr
00C7   08??           00642         MOVF    ___sdcc_saved_fsr,W
00C8   1283 1303      00643         BANKSEL FSR
00CA   0084           00644         MOVWF   FSR
00CB   08??           00645         MOVF    PSAVE,W
00CC   008A           00646         MOVWF   PCLATH
00CD   0183           00647         CLRF    STATUS
00CE   0E??           00648         SWAPF   SSAVE,W
00CF   0083           00649         MOVWF   STATUS
00D0   0E??           00650         SWAPF   WSAVE,F
00D1   0E??           00651         SWAPF   WSAVE,W
00D2                  00652 END_OF_INTERRUPT:
00D2   0009           00653         RETFIE  
                      00654 
                      00655 ;--------------------------------------------------------
                      00656 ; code
                      00657 ;--------------------------------------------------------
                      00658 code_main       code
                      00659 ;***
                      00660 ;  pBlock Stats: dbName = M
                      00661 ;***
                      00662 ;has an exit
                      00663 ;functions called:
                      00664 ;   _init
                      00665 ;   _dec_to_ascii
                      00666 ;   _SP_send
                      00667 ;   _dec_to_ascii
                      00668 ;   _SP_send
                      00669 ;   _init
                      00670 ;   _dec_to_ascii
                      00671 ;   _SP_send
                      00672 ;   _dec_to_ascii
                      00673 ;   _SP_send
                      00674 ;5 compiler assigned registers:
                      00675 ;   STK00
                      00676 ;   r0x103E
                      00677 ;   r0x103F
                      00678 ;   r0x1040
                      00679 ;   STK01
gpasm-1.4.0 #1107 (May  9 2015) build/default   1-6-2017  19:28:11          PAGE 14


LOC    OBJECT CODE    LINE  SOURCE TEXT
  VALUE

                      00680 ;; Starting pCode block
                      00681 S_main__main    code
0000                  00682 _main:
                      00683 ; 2 exit points
                      00684 ;       .line   135; "main.c"   init();
0000   ????           00685         PAGESEL _init
0001   2???           00686         CALL    _init
0002   ????           00687         PAGESEL $
0003                  00688 _00147_DS_:
                      00689 ;       .line   139; "main.c"   if (bitfield.Capture){
0003   ???? ????      00690         BANKSEL _bitfield
0005   1C??           00691         BTFSS   _bitfield,0
0006   2???           00692         GOTO    _00145_DS_
                      00693 ;       .line   140; "main.c"   dec_to_ascii(w);
0007   ???? ????      00694         BANKSEL _w
0009   08??           00695         MOVF    _w,W
000A   00??           00696         MOVWF   STK00
000B   08??           00697         MOVF    (_w + 1),W
000C   ????           00698         PAGESEL _dec_to_ascii
000D   2???           00699         CALL    _dec_to_ascii
000E   ????           00700         PAGESEL $
                      00701 ;       .line   141; "main.c"   SP_send(tab);
000F   30??           00702         MOVLW   high (_tab + 0)
0010   ???? ????      00703         BANKSEL r0x103E
0012   00??           00704         MOVWF   r0x103E
0013   30??           00705         MOVLW   (_tab + 0)
0014   00??           00706         MOVWF   r0x103F
0015   3080           00707         MOVLW   0x80
0016   00??           00708         MOVWF   r0x1040
0017   08??           00709         MOVF    r0x103F,W
0018   00??           00710         MOVWF   STK01
0019   08??           00711         MOVF    r0x103E,W
001A   00??           00712         MOVWF   STK00
001B   08??           00713         MOVF    r0x1040,W
001C   ????           00714         PAGESEL _SP_send
001D   2???           00715         CALL    _SP_send
001E   ????           00716         PAGESEL $
                      00717 ;       .line   142; "main.c"   dec_to_ascii(t);
001F   ???? ????      00718         BANKSEL _t
0021   08??           00719         MOVF    _t,W
0022   00??           00720         MOVWF   STK00
0023   08??           00721         MOVF    (_t + 1),W
0024   ????           00722         PAGESEL _dec_to_ascii
0025   2???           00723         CALL    _dec_to_ascii
0026   ????           00724         PAGESEL $
                      00725 ;       .line   143; "main.c"   SP_send(enter);
0027   30??           00726         MOVLW   high (_enter + 0)
0028   ???? ????      00727         BANKSEL r0x103E
002A   00??           00728         MOVWF   r0x103E
002B   30??           00729         MOVLW   (_enter + 0)
002C   00??           00730         MOVWF   r0x103F
002D   3080           00731         MOVLW   0x80
002E   00??           00732         MOVWF   r0x1040
gpasm-1.4.0 #1107 (May  9 2015) build/default   1-6-2017  19:28:11          PAGE 15


LOC    OBJECT CODE    LINE  SOURCE TEXT
  VALUE

002F   08??           00733         MOVF    r0x103F,W
0030   00??           00734         MOVWF   STK01
0031   08??           00735         MOVF    r0x103E,W
0032   00??           00736         MOVWF   STK00
0033   08??           00737         MOVF    r0x1040,W
0034   ????           00738         PAGESEL _SP_send
0035   2???           00739         CALL    _SP_send
0036   ????           00740         PAGESEL $
                      00741 ;       .line   157; "main.c"   t1 = t;
0037   ???? ????      00742         BANKSEL _t
0039   08??           00743         MOVF    _t,W
003A   ???? ????      00744         BANKSEL _t1
003C   00??           00745         MOVWF   _t1
003D   ???? ????      00746         BANKSEL _t
003F   08??           00747         MOVF    (_t + 1),W
0040   ???? ????      00748         BANKSEL _t1
0042   00??           00749         MOVWF   (_t1 + 1)
                      00750 ;       .line   158; "main.c"   w1 = w;
0043   ???? ????      00751         BANKSEL _w
0045   08??           00752         MOVF    _w,W
0046   ???? ????      00753         BANKSEL _w1
0048   00??           00754         MOVWF   _w1
0049   ???? ????      00755         BANKSEL _w
004B   08??           00756         MOVF    (_w + 1),W
004C   ???? ????      00757         BANKSEL _w1
004E   00??           00758         MOVWF   (_w1 + 1)
                      00759 ;       .line   159; "main.c"   bitfield.Capture = FALSE;
004F   ???? ????      00760         BANKSEL _bitfield
0051   10??           00761         BCF     _bitfield,0
0052                  00762 _00145_DS_:
                      00763 ;       .line   162; "main.c"   int_error_cnt = 0;
0052   ???? ????      00764         BANKSEL _int_error_cnt
0054   01??           00765         CLRF    _int_error_cnt
0055   2???           00766         GOTO    _00147_DS_
0056   0008           00767         RETURN  
                      00768 ; exit point of _main
                      00769 
                      00770 ;***
                      00771 ;  pBlock Stats: dbName = C
                      00772 ;***
                      00773 ;has an exit
                      00774 ;functions called:
                      00775 ;   __gptrget1
                      00776 ;   __gptrget1
                      00777 ;10 compiler assigned registers:
                      00778 ;   r0x1021
                      00779 ;   STK00
                      00780 ;   r0x1022
                      00781 ;   STK01
                      00782 ;   r0x1023
                      00783 ;   r0x1024
                      00784 ;   r0x1025
                      00785 ;   r0x1026
gpasm-1.4.0 #1107 (May  9 2015) build/default   1-6-2017  19:28:11          PAGE 16


LOC    OBJECT CODE    LINE  SOURCE TEXT
  VALUE

                      00786 ;   r0x1027
                      00787 ;   r0x1028
                      00788 ;; Starting pCode block
                      00789 S_main__SP_send_error   code
0000                  00790 _SP_send_error:
                      00791 ; 2 exit points
                      00792 ;       .line   221; "main.c"   void SP_send_error(char str[])
0000   ???? ????      00793         BANKSEL r0x1021
0002   00??           00794         MOVWF   r0x1021
0003   08??           00795         MOVF    STK00,W
0004   00??           00796         MOVWF   r0x1022
0005   08??           00797         MOVF    STK01,W
0006   00??           00798         MOVWF   r0x1023
                      00799 ;       .line   224; "main.c"   GIE = FALSE;    // Disable all interrupts.
0007   ???? ????      00800         BANKSEL _INTCONbits
0009   13??           00801         BCF     _INTCONbits,7
                      00802 ;       .line   225; "main.c"   for(i=0; str[i] != '\0'; i++)
000A   ???? ????      00803         BANKSEL r0x1024
000C   01??           00804         CLRF    r0x1024
000D                  00805 _00193_DS_:
000D   ???? ????      00806         BANKSEL r0x1024
000F   08??           00807         MOVF    r0x1024,W
0010   07??           00808         ADDWF   r0x1023,W
0011   00??           00809         MOVWF   r0x1025
0012   08??           00810         MOVF    r0x1022,W
0013   1803           00811         BTFSC   STATUS,0
0014   3E01           00812         ADDLW   0x01
0015   00??           00813         MOVWF   r0x1026
0016   08??           00814         MOVF    r0x1021,W
0017   1803           00815         BTFSC   STATUS,0
0018   3E01           00816         ADDLW   0x01
0019   00??           00817         MOVWF   r0x1027
001A   08??           00818         MOVF    r0x1025,W
001B   00??           00819         MOVWF   STK01
001C   08??           00820         MOVF    r0x1026,W
001D   00??           00821         MOVWF   STK00
001E   08??           00822         MOVF    r0x1027,W
001F   ????           00823         PAGESEL __gptrget1
0020   2???           00824         CALL    __gptrget1
0021   ????           00825         PAGESEL $
0022   ???? ????      00826         BANKSEL r0x1028
0024   00??           00827         MOVWF   r0x1028
0025   08??           00828         MOVF    r0x1028,W
0026   1903           00829         BTFSC   STATUS,2
0027   2???           00830         GOTO    _00195_DS_
                      00831 ;       .line   227; "main.c"   TXREG=str[i];   // Add a character to the output buffer
0028   08??           00832         MOVF    r0x1028,W
0029   ???? ????      00833         BANKSEL _TXREG
002B   00??           00834         MOVWF   _TXREG
002C                  00835 _00188_DS_:
                      00836 ;       .line   228; "main.c"   while(!TXIF);   // Wait while the output buffer is full
002C   ???? ????      00837         BANKSEL _PIR1bits
002E   1E??           00838         BTFSS   _PIR1bits,4
gpasm-1.4.0 #1107 (May  9 2015) build/default   1-6-2017  19:28:11          PAGE 17


LOC    OBJECT CODE    LINE  SOURCE TEXT
  VALUE

002F   2???           00839         GOTO    _00188_DS_
                      00840 ;       .line   225; "main.c"   for(i=0; str[i] != '\0'; i++)
0030   ???? ????      00841         BANKSEL r0x1024
0032   0A??           00842         INCF    r0x1024,F
0033   2???           00843         GOTO    _00193_DS_
0034                  00844 _00195_DS_:
0034   0008           00845         RETURN  
                      00846 ; exit point of _SP_send_error
                      00847 
                      00848 ;***
                      00849 ;  pBlock Stats: dbName = C
                      00850 ;***
                      00851 ;has an exit
                      00852 ;functions called:
                      00853 ;   __gptrget1
                      00854 ;   _circBufPush
                      00855 ;   __gptrget1
                      00856 ;   _circBufPush
                      00857 ;10 compiler assigned registers:
                      00858 ;   r0x102E
                      00859 ;   STK00
                      00860 ;   r0x102F
                      00861 ;   STK01
                      00862 ;   r0x1030
                      00863 ;   r0x1031
                      00864 ;   r0x1032
                      00865 ;   r0x1033
                      00866 ;   r0x1034
                      00867 ;   r0x1035
                      00868 ;; Starting pCode block
                      00869 S_main__SP_send code
0000                  00870 _SP_send:
                      00871 ; 2 exit points
                      00872 ;       .line   213; "main.c"   void SP_send(char str[]){
0000   ???? ????      00873         BANKSEL r0x102E
0002   00??           00874         MOVWF   r0x102E
0003   08??           00875         MOVF    STK00,W
0004   00??           00876         MOVWF   r0x102F
0005   08??           00877         MOVF    STK01,W
0006   00??           00878         MOVWF   r0x1030
                      00879 ;       .line   215; "main.c"   for(i=0; str[i] != '\0'; i++)
0007   01??           00880         CLRF    r0x1031
0008                  00881 _00181_DS_:
0008   ???? ????      00882         BANKSEL r0x1031
000A   08??           00883         MOVF    r0x1031,W
000B   07??           00884         ADDWF   r0x1030,W
000C   00??           00885         MOVWF   r0x1032
000D   08??           00886         MOVF    r0x102F,W
000E   1803           00887         BTFSC   STATUS,0
000F   3E01           00888         ADDLW   0x01
0010   00??           00889         MOVWF   r0x1033
0011   08??           00890         MOVF    r0x102E,W
0012   1803           00891         BTFSC   STATUS,0
gpasm-1.4.0 #1107 (May  9 2015) build/default   1-6-2017  19:28:11          PAGE 18


LOC    OBJECT CODE    LINE  SOURCE TEXT
  VALUE

0013   3E01           00892         ADDLW   0x01
0014   00??           00893         MOVWF   r0x1034
0015   08??           00894         MOVF    r0x1032,W
0016   00??           00895         MOVWF   STK01
0017   08??           00896         MOVF    r0x1033,W
0018   00??           00897         MOVWF   STK00
0019   08??           00898         MOVF    r0x1034,W
001A   ????           00899         PAGESEL __gptrget1
001B   2???           00900         CALL    __gptrget1
001C   ????           00901         PAGESEL $
001D   ???? ????      00902         BANKSEL r0x1035
001F   00??           00903         MOVWF   r0x1035
0020   08??           00904         MOVF    r0x1035,W
0021   1903           00905         BTFSC   STATUS,2
0022   2???           00906         GOTO    _00183_DS_
                      00907 ;       .line   217; "main.c"   circBufPush(str[i]);
0023   08??           00908         MOVF    r0x1035,W
0024   ????           00909         PAGESEL _circBufPush
0025   2???           00910         CALL    _circBufPush
0026   ????           00911         PAGESEL $
                      00912 ;       .line   215; "main.c"   for(i=0; str[i] != '\0'; i++)
0027   ???? ????      00913         BANKSEL r0x1031
0029   0A??           00914         INCF    r0x1031,F
002A   2???           00915         GOTO    _00181_DS_
002B                  00916 _00183_DS_:
002B   0008           00917         RETURN  
                      00918 ; exit point of _SP_send
                      00919 
                      00920 ;***
                      00921 ;  pBlock Stats: dbName = C
                      00922 ;***
                      00923 ;has an exit
                      00924 ;functions called:
                      00925 ;   __moduint
                      00926 ;   __divuint
                      00927 ;   _circBufPush
                      00928 ;   __moduint
                      00929 ;   __divuint
                      00930 ;   _circBufPush
                      00931 ;11 compiler assigned registers:
                      00932 ;   r0x1036
                      00933 ;   STK00
                      00934 ;   r0x1037
                      00935 ;   r0x1038
                      00936 ;   r0x1039
                      00937 ;   r0x103A
                      00938 ;   STK02
                      00939 ;   STK01
                      00940 ;   r0x103B
                      00941 ;   r0x103C
                      00942 ;   r0x103D
                      00943 ;; Starting pCode block
                      00944 S_main__dec_to_ascii    code
gpasm-1.4.0 #1107 (May  9 2015) build/default   1-6-2017  19:28:11          PAGE 19


LOC    OBJECT CODE    LINE  SOURCE TEXT
  VALUE

0000                  00945 _dec_to_ascii:
                      00946 ; 2 exit points
                      00947 ;       .line   195; "main.c"   void dec_to_ascii(unsigned short dec)
0000   ???? ????      00948         BANKSEL r0x1036
0002   00??           00949         MOVWF   r0x1036
0003   08??           00950         MOVF    STK00,W
0004   00??           00951         MOVWF   r0x1037
                      00952 ;       .line   200; "main.c"   for (i=0; dec!=0 || i==0; i++)
0005   01??           00953         CLRF    r0x1038
0006                  00954 _00167_DS_:
0006   ???? ????      00955         BANKSEL r0x1037
0008   08??           00956         MOVF    r0x1037,W
0009   04??           00957         IORWF   r0x1036,W
000A   1D03           00958         BTFSS   STATUS,2
000B   2???           00959         GOTO    _00166_DS_
000C   08??           00960         MOVF    r0x1038,W
000D   1D03           00961         BTFSS   STATUS,2
000E   2???           00962         GOTO    _00174_DS_
000F                  00963 _00166_DS_:
                      00964 ;       .line   202; "main.c"   number[i]=(dec % 10);
000F   ???? ????      00965         BANKSEL r0x1038
0011   08??           00966         MOVF    r0x1038,W
0012   3E??           00967         ADDLW   (_dec_to_ascii_number_1_20 + 0)
0013   00??           00968         MOVWF   r0x1039
0014   30??           00969         MOVLW   high (_dec_to_ascii_number_1_20 + 0)
0015   1803           00970         BTFSC   STATUS,0
0016   3E01           00971         ADDLW   0x01
0017   00??           00972         MOVWF   r0x103A
0018   300A           00973         MOVLW   0x0a
0019   00??           00974         MOVWF   STK02
001A   3000           00975         MOVLW   0x00
001B   00??           00976         MOVWF   STK01
001C   08??           00977         MOVF    r0x1037,W
001D   00??           00978         MOVWF   STK00
001E   08??           00979         MOVF    r0x1036,W
001F   ????           00980         PAGESEL __moduint
0020   2???           00981         CALL    __moduint
0021   ????           00982         PAGESEL $
                      00983 ;;1     MOVWF   r0x103B
0022   08??           00984         MOVF    STK00,W
                      00985 ;;1     MOVWF   r0x103C
0023   ???? ????      00986         BANKSEL r0x103D
0025   00??           00987         MOVWF   r0x103D
0026   08??           00988         MOVF    r0x1039,W
0027   1283 1303      00989         BANKSEL FSR
0029   0084           00990         MOVWF   FSR
002A   1383           00991         BCF     STATUS,7
002B   ???? ????      00992         BANKSEL r0x103A
002D   18??           00993         BTFSC   r0x103A,0
002E   1783           00994         BSF     STATUS,7
002F   08??           00995         MOVF    r0x103D,W
0030   1283 1303      00996         BANKSEL INDF
0032   0080           00997         MOVWF   INDF
gpasm-1.4.0 #1107 (May  9 2015) build/default   1-6-2017  19:28:11          PAGE 20


LOC    OBJECT CODE    LINE  SOURCE TEXT
  VALUE

                      00998 ;       .line   203; "main.c"   dec /=10;
0033   300A           00999         MOVLW   0x0a
0034   00??           01000         MOVWF   STK02
0035   3000           01001         MOVLW   0x00
0036   00??           01002         MOVWF   STK01
0037   ???? ????      01003         BANKSEL r0x1037
0039   08??           01004         MOVF    r0x1037,W
003A   00??           01005         MOVWF   STK00
003B   08??           01006         MOVF    r0x1036,W
003C   ????           01007         PAGESEL __divuint
003D   2???           01008         CALL    __divuint
003E   ????           01009         PAGESEL $
003F   ???? ????      01010         BANKSEL r0x1036
0041   00??           01011         MOVWF   r0x1036
0042   08??           01012         MOVF    STK00,W
0043   00??           01013         MOVWF   r0x1037
                      01014 ;       .line   204; "main.c"   number[i] +=48;
0044   3030           01015         MOVLW   0x30
0045   07??           01016         ADDWF   r0x103D,F
0046   08??           01017         MOVF    r0x1039,W
0047   1283 1303      01018         BANKSEL FSR
0049   0084           01019         MOVWF   FSR
004A   1383           01020         BCF     STATUS,7
004B   ???? ????      01021         BANKSEL r0x103A
004D   18??           01022         BTFSC   r0x103A,0
004E   1783           01023         BSF     STATUS,7
004F   08??           01024         MOVF    r0x103D,W
0050   1283 1303      01025         BANKSEL INDF
0052   0080           01026         MOVWF   INDF
                      01027 ;       .line   200; "main.c"   for (i=0; dec!=0 || i==0; i++)
0053   ???? ????      01028         BANKSEL r0x1038
0055   0A??           01029         INCF    r0x1038,F
0056   2???           01030         GOTO    _00167_DS_
0057                  01031 _00174_DS_:
                      01032 ;       .line   206; "main.c"   while (i--)
0057   ???? ????      01033         BANKSEL r0x1038
0059   08??           01034         MOVF    r0x1038,W
005A   00??           01035         MOVWF   r0x1037
005B                  01036 _00162_DS_:
005B   ???? ????      01037         BANKSEL r0x1037
005D   08??           01038         MOVF    r0x1037,W
005E   00??           01039         MOVWF   r0x1036
005F   03??           01040         DECF    r0x1037,F
0060   08??           01041         MOVF    r0x1036,W
0061   1903           01042         BTFSC   STATUS,2
0062   2???           01043         GOTO    _00169_DS_
                      01044 ;       .line   208; "main.c"   circBufPush(number[i]); // Add a character to the output buffer
0063   08??           01045         MOVF    r0x1037,W
0064   3E??           01046         ADDLW   (_dec_to_ascii_number_1_20 + 0)
0065   00??           01047         MOVWF   r0x1036
0066   30??           01048         MOVLW   high (_dec_to_ascii_number_1_20 + 0)
0067   1803           01049         BTFSC   STATUS,0
0068   3E01           01050         ADDLW   0x01
gpasm-1.4.0 #1107 (May  9 2015) build/default   1-6-2017  19:28:11          PAGE 21


LOC    OBJECT CODE    LINE  SOURCE TEXT
  VALUE

0069   00??           01051         MOVWF   r0x1038
006A   08??           01052         MOVF    r0x1036,W
006B   1283 1303      01053         BANKSEL FSR
006D   0084           01054         MOVWF   FSR
006E   1383           01055         BCF     STATUS,7
006F   ???? ????      01056         BANKSEL r0x1038
0071   18??           01057         BTFSC   r0x1038,0
0072   1783           01058         BSF     STATUS,7
0073   1283 1303      01059         BANKSEL INDF
0075   0800           01060         MOVF    INDF,W
0076   ???? ????      01061         BANKSEL r0x1039
0078   00??           01062         MOVWF   r0x1039
0079   ????           01063         PAGESEL _circBufPush
007A   2???           01064         CALL    _circBufPush
007B   ????           01065         PAGESEL $
007C   2???           01066         GOTO    _00162_DS_
007D                  01067 _00169_DS_:
007D   0008           01068         RETURN  
                      01069 ; exit point of _dec_to_ascii
                      01070 
                      01071 ;***
                      01072 ;  pBlock Stats: dbName = C
                      01073 ;***
                      01074 ;has an exit
                      01075 ;functions called:
                      01076 ;   _SP_send_error
                      01077 ;   _SP_send_error
                      01078 ;7 compiler assigned registers:
                      01079 ;   r0x1029
                      01080 ;   r0x102A
                      01081 ;   r0x102B
                      01082 ;   r0x102C
                      01083 ;   r0x102D
                      01084 ;   STK01
                      01085 ;   STK00
                      01086 ;; Starting pCode block
                      01087 S_main__circBufPush     code
0000                  01088 _circBufPush:
                      01089 ; 2 exit points
                      01090 ;       .line   166; "main.c"   int circBufPush(uint8_t data){
0000   ???? ????      01091         BANKSEL r0x1029
0002   00??           01092         MOVWF   r0x1029
                      01093 ;       .line   167; "main.c"   uint8_t next = buf_head + 1;
0003   ???? ????      01094         BANKSEL _buf_head
0005   0A??           01095         INCF    _buf_head,W
0006   ???? ????      01096         BANKSEL r0x102A
0008   00??           01097         MOVWF   r0x102A
                      01098 ;;unsigned compare: left < lit(0x10=16), size=1
                      01099 ;       .line   168; "main.c"   if (next >= BUF_SIZE)
0009   3010           01100         MOVLW   0x10
                      01101 ;       .line   169; "main.c"   next = 0;
000A   02??           01102         SUBWF   r0x102A,W
                      01103 ;       .line   172; "main.c"   if (next == buf_tail){
gpasm-1.4.0 #1107 (May  9 2015) build/default   1-6-2017  19:28:11          PAGE 22


LOC    OBJECT CODE    LINE  SOURCE TEXT
  VALUE

000B   1803           01104         BTFSC   STATUS,0
000C   01??           01105         CLRF    r0x102A
000D   ???? ????      01106         BANKSEL _buf_tail
000F   08??           01107         MOVF    _buf_tail,W
0010   ???? ????      01108         BANKSEL r0x102A
0012   06??           01109         XORWF   r0x102A,W
0013   1D03           01110         BTFSS   STATUS,2
0014   2???           01111         GOTO    _00155_DS_
                      01112 ;       .line   173; "main.c"   SP_send_error(buf_err);
0015   30??           01113         MOVLW   high (_buf_err + 0)
0016   00??           01114         MOVWF   r0x102B
0017   30??           01115         MOVLW   (_buf_err + 0)
0018   00??           01116         MOVWF   r0x102C
0019   3080           01117         MOVLW   0x80
001A   00??           01118         MOVWF   r0x102D
001B   08??           01119         MOVF    r0x102C,W
001C   00??           01120         MOVWF   STK01
001D   08??           01121         MOVF    r0x102B,W
001E   00??           01122         MOVWF   STK00
001F   08??           01123         MOVF    r0x102D,W
0020   ????           01124         PAGESEL _SP_send_error
0021   2???           01125         CALL    _SP_send_error
0022   ????           01126         PAGESEL $
                      01127 ;       .line   174; "main.c"   return -1;  // quit with an error
0023   30FF           01128         MOVLW   0xff
0024   00??           01129         MOVWF   STK00
0025   30FF           01130         MOVLW   0xff
0026   2???           01131         GOTO    _00156_DS_
0027                  01132 _00155_DS_:
                      01133 ;       .line   177; "main.c"   buf[buf_head] = data;
0027   ???? ????      01134         BANKSEL _buf_head
0029   08??           01135         MOVF    _buf_head,W
002A   3E??           01136         ADDLW   (_buf + 0)
002B   ???? ????      01137         BANKSEL r0x102C
002D   00??           01138         MOVWF   r0x102C
002E   30??           01139         MOVLW   high (_buf + 0)
002F   1803           01140         BTFSC   STATUS,0
0030   3E01           01141         ADDLW   0x01
0031   00??           01142         MOVWF   r0x102B
0032   08??           01143         MOVF    r0x102C,W
0033   1283 1303      01144         BANKSEL FSR
0035   0084           01145         MOVWF   FSR
0036   1383           01146         BCF     STATUS,7
0037   ???? ????      01147         BANKSEL r0x102B
0039   18??           01148         BTFSC   r0x102B,0
003A   1783           01149         BSF     STATUS,7
003B   08??           01150         MOVF    r0x1029,W
003C   1283 1303      01151         BANKSEL INDF
003E   0080           01152         MOVWF   INDF
                      01153 ;       .line   178; "main.c"   buf_head = next;
003F   ???? ????      01154         BANKSEL r0x102A
0041   08??           01155         MOVF    r0x102A,W
0042   ???? ????      01156         BANKSEL _buf_head
gpasm-1.4.0 #1107 (May  9 2015) build/default   1-6-2017  19:28:11          PAGE 23


LOC    OBJECT CODE    LINE  SOURCE TEXT
  VALUE

0044   00??           01157         MOVWF   _buf_head
                      01158 ;       .line   179; "main.c"   TXIE = 1;       //Enables the EUSART transmit interrupt
0045   ???? ????      01159         BANKSEL _PIE1bits
0047   16??           01160         BSF     _PIE1bits,4
                      01161 ;       .line   180; "main.c"   return 0;
0048   3000           01162         MOVLW   0x00
0049   00??           01163         MOVWF   STK00
004A   3000           01164         MOVLW   0x00
004B                  01165 _00156_DS_:
004B   0008           01166         RETURN  
                      01167 ; exit point of _circBufPush
                      01168 
                      01169 
                      01170 ;       code size estimation:
                      01171 ;         369+  125 =   494 instructions ( 1238 byte)
                      01172 
                      01173         end
gpasm-1.4.0 #1107 (May  9 2015) build/default   1-6-2017  19:28:11          PAGE 24


SYMBOL TABLE
  LABEL                             VALUE

ABDEN                             00000000
ABDOVF                            00000007
ADCON0                            0000001F
ADCON1                            0000009F
ADCS0                             00000004
ADCS1                             00000005
ADCS2                             00000006
ADDEN                             00000003
ADFM                              00000007
ADIE                              00000006
ADIF                              00000006
ADON                              00000000
ADRESH                            0000001E
ADRESL                            0000009E
ANS0                              00000000
ANS1                              00000001
ANS10                             00000002
ANS11                             00000003
ANS2                              00000002
ANS3                              00000003
ANS4                              00000004
ANS5                              00000005
ANS6                              00000006
ANS7                              00000007
ANS8                              00000000
ANS9                              00000001
ANSEL                             0000011E
ANSELH                            0000011F
BAUDCTL                           0000009B
BF                                00000000
BRG0                              00000000
BRG1                              00000001
BRG10                             00000002
BRG11                             00000003
BRG12                             00000004
BRG13                             00000005
BRG14                             00000006
BRG15                             00000007
BRG16                             00000003
BRG2                              00000002
BRG3                              00000003
BRG4                              00000004
BRG5                              00000005
BRG6                              00000006
BRG7                              00000007
BRG8                              00000000
BRG9                              00000001
BRGH                              00000002
C                                 00000000
C1CH0                             00000000
C1CH1                             00000001
C1IE                              00000005
C1IF                              00000005
gpasm-1.4.0 #1107 (May  9 2015) build/default   1-6-2017  19:28:11          PAGE 25


SYMBOL TABLE
  LABEL                             VALUE 

C1OE                              00000005
C1ON                              00000007
C1OUT                             00000006
C1POL                             00000004
C1R                               00000002
C1SEN                             00000005
C1VREN                            00000007
C2CH0                             00000000
C2CH1                             00000001
C2IE                              00000006
C2IF                              00000006
C2OE                              00000005
C2ON                              00000007
C2OUT                             00000006
C2POL                             00000004
C2R                               00000002
C2REN                             00000004
C2SYNC                            00000000
C2VREN                            00000006
CCP1CON                           00000017
CCP1IE                            00000002
CCP1IF                            00000002
CCP1M0                            00000000
CCP1M1                            00000001
CCP1M2                            00000002
CCP1M3                            00000003
CCPR                              00000015
CCPR1H                            00000016
CCPR1L                            00000015
CHS0                              00000002
CHS1                              00000003
CHS2                              00000004
CHS3                              00000005
CKE                               00000006
CKP                               00000004
CM1CON0                           00000119
CM2CON0                           0000011A
CM2CON1                           0000011B
CREN                              00000004
CSRC                              00000007
D                                 00000005
DATA_ADDRESS                      00000005
DC                                00000001
DC1B0                             00000004
DC1B1                             00000005
D_A                               00000005
D_NOT_A                           00000005
ECCPAS                            0000001D
ECCPAS0                           00000004
ECCPAS1                           00000005
ECCPAS2                           00000006
ECCPASE                           00000007
EEADR                             0000010D
gpasm-1.4.0 #1107 (May  9 2015) build/default   1-6-2017  19:28:11          PAGE 26


SYMBOL TABLE
  LABEL                             VALUE 

EEADRH                            0000010F
EECON1                            0000018C
EECON2                            0000018D
EEDAT                             0000010C
EEDATA                            0000010C
EEDATH                            0000010E
EEIE                              00000004
EEIF                              00000004
EEPGD                             00000007
END_OF_INTERRUPT                  000000D2
F                                 00000001
FERR                              00000002
FSR                               00000004
GIE                               00000007
GO                                00000001
GO_DONE                           00000001
GO_NOT_DONE                       00000001
HTS                               00000002
I2C_DATA                          00000005
I2C_READ                          00000002
I2C_START                         00000003
I2C_STOP                          00000004
INDF                              00000000
INTCON                            0000000B
INTE                              00000004
INTEDG                            00000006
INTF                              00000001
IOC                               00000096
IOC0                              00000000
IOC1                              00000001
IOC2                              00000002
IOC3                              00000003
IOC4                              00000004
IOC5                              00000005
IOCA                              00000096
IOCA0                             00000000
IOCA1                             00000001
IOCA2                             00000002
IOCA3                             00000003
IOCA4                             00000004
IOCA5                             00000005
IOCB                              00000116
IOCB4                             00000004
IOCB5                             00000005
IOCB6                             00000006
IOCB7                             00000007
IRCF0                             00000004
IRCF1                             00000005
IRCF2                             00000006
IRP                               00000007
LTS                               00000001
MC1OUT                            00000007
MC2OUT                            00000006
gpasm-1.4.0 #1107 (May  9 2015) build/default   1-6-2017  19:28:11          PAGE 27


SYMBOL TABLE
  LABEL                             VALUE 

MSK                               00000093
MSK0                              00000000
MSK1                              00000001
MSK2                              00000002
MSK3                              00000003
MSK4                              00000004
MSK5                              00000005
MSK6                              00000006
MSK7                              00000007
NOT_A                             00000005
NOT_ADDRESS                       00000005
NOT_BOR                           00000000
NOT_DONE                          00000001
NOT_PD                            00000003
NOT_POR                           00000001
NOT_RABPU                         00000007
NOT_T1SYNC                        00000002
NOT_TO                            00000004
NOT_W                             00000002
NOT_WRITE                         00000002
OERR                              00000001
OPTION_REG                        00000081
OSCCON                            0000008F
OSCTUNE                           00000090
OSFIE                             00000007
OSFIF                             00000007
OSTS                              00000003
P                                 00000004
P1M0                              00000006
P1M1                              00000007
PCL                               00000002
PCLATH                            0000000A
PCON                              0000008E
PDC0                              00000000
PDC1                              00000001
PDC2                              00000002
PDC3                              00000003
PDC4                              00000004
PDC5                              00000005
PDC6                              00000006
PEIE                              00000006
PIE1                              0000008C
PIE2                              0000008D
PIR1                              0000000C
PIR2                              0000000D
PORTA                             00000005
PORTB                             00000006
PORTC                             00000007
PR2                               00000092
PRSEN                             00000007
PS0                               00000000
PS1                               00000001
PS2                               00000002
gpasm-1.4.0 #1107 (May  9 2015) build/default   1-6-2017  19:28:11          PAGE 28


SYMBOL TABLE
  LABEL                             VALUE 

PSA                               00000003
PSAVE                             00000070
PSSAC0                            00000002
PSSAC1                            00000003
PSSBD0                            00000000
PSSBD1                            00000001
PSTRCON                           0000019D
PULSR                             00000002
PULSS                             00000003
PWM1CON                           0000001C
R                                 00000002
RA0                               00000000
RA1                               00000001
RA2                               00000002
RA3                               00000003
RA4                               00000004
RA5                               00000005
RABIE                             00000003
RABIF                             00000000
RB4                               00000004
RB5                               00000005
RB6                               00000006
RB7                               00000007
RC0                               00000000
RC1                               00000001
RC2                               00000002
RC3                               00000003
RC4                               00000004
RC5                               00000005
RC6                               00000006
RC7                               00000007
RCIDL                             00000006
RCIE                              00000005
RCIF                              00000005
RCREG                             0000001A
RCSTA                             00000018
RD                                00000000
READ_WRITE                        00000002
RP0                               00000005
RP1                               00000006
RX9                               00000006
RX9D                              00000000
R_NOT_W                           00000002
R_W                               00000002
S                                 00000003
SBOREN                            00000004
SCKP                              00000004
SCS                               00000000
SENB                              00000003
SENDB                             00000003
SMP                               00000007
SPBRG                             00000099
SPBRGH                            0000009A
gpasm-1.4.0 #1107 (May  9 2015) build/default   1-6-2017  19:28:11          PAGE 29


SYMBOL TABLE
  LABEL                             VALUE 

SPEN                              00000007
SR0                               00000006
SR1                               00000007
SRCON                             0000019E
SREN                              00000005
SSAVE                             00000071
SSPADD                            00000093
SSPBUF                            00000013
SSPCON                            00000014
SSPEN                             00000005
SSPIE                             00000003
SSPIF                             00000003
SSPM0                             00000000
SSPM1                             00000001
SSPM2                             00000002
SSPM3                             00000003
SSPMSK                            00000093
SSPOV                             00000006
SSPSTAT                           00000094
STATUS                            00000003
STK00                             0000007F
STK01                             0000007E
STK02                             0000007D
STK03                             0000007C
STK04                             0000007B
STK05                             0000007A
STK06                             00000079
STK07                             00000078
STK08                             00000077
STK09                             00000076
STK10                             00000075
STK11                             00000074
STK12                             00000073
STRA                              00000000
STRB                              00000001
STRC                              00000002
STRD                              00000003
STRSYNC                           00000004
SWDTEN                            00000000
SYNC                              00000004
T0CS                              00000005
T0IE                              00000005
T0IF                              00000002
T0SE                              00000004
T1CKPS0                           00000004
T1CKPS1                           00000005
T1CON                             00000010
T1GINV                            00000007
T1GSS                             00000001
T1IE                              00000000
T1IF                              00000000
T1OSCEN                           00000003
T2CKPS0                           00000000
gpasm-1.4.0 #1107 (May  9 2015) build/default   1-6-2017  19:28:11          PAGE 30


SYMBOL TABLE
  LABEL                             VALUE 

T2CKPS1                           00000001
T2CON                             00000012
T2IE                              00000001
T2IF                              00000001
TMR0                              00000001
TMR1                              0000000E
TMR1CS                            00000001
TMR1GE                            00000006
TMR1H                             0000000F
TMR1IE                            00000000
TMR1IF                            00000000
TMR1L                             0000000E
TMR1ON                            00000000
TMR2                              00000011
TMR2IE                            00000001
TMR2IF                            00000001
TMR2ON                            00000002
TOUTPS0                           00000003
TOUTPS1                           00000004
TOUTPS2                           00000005
TOUTPS3                           00000006
TRISA                             00000085
TRISA0                            00000000
TRISA1                            00000001
TRISA2                            00000002
TRISA3                            00000003
TRISA4                            00000004
TRISA5                            00000005
TRISB                             00000086
TRISB4                            00000004
TRISB5                            00000005
TRISB6                            00000006
TRISB7                            00000007
TRISC                             00000087
TRISC0                            00000000
TRISC1                            00000001
TRISC2                            00000002
TRISC3                            00000003
TRISC4                            00000004
TRISC5                            00000005
TRISC6                            00000006
TRISC7                            00000007
TRMT                              00000001
TUN0                              00000000
TUN1                              00000001
TUN2                              00000002
TUN3                              00000003
TUN4                              00000004
TX9                               00000006
TX9D                              00000000
TXEN                              00000005
TXIE                              00000004
TXIF                              00000004
gpasm-1.4.0 #1107 (May  9 2015) build/default   1-6-2017  19:28:11          PAGE 31


SYMBOL TABLE
  LABEL                             VALUE 

TXREG                             00000019
TXSTA                             00000098
UA                                00000001
ULPWUE                            00000005
VCFG                              00000006
VP6EN                             00000004
VR0                               00000000
VR1                               00000001
VR2                               00000002
VR3                               00000003
VRCON                             00000118
VRR                               00000005
W                                 00000000
WCOL                              00000007
WDTCON                            00000097
WDTPS0                            00000001
WDTPS1                            00000002
WDTPS2                            00000003
WDTPS3                            00000004
WPU                               00000095
WPU0                              00000000
WPU1                              00000001
WPU2                              00000002
WPU4                              00000004
WPU5                              00000005
WPUA                              00000095
WPUA0                             00000000
WPUA1                             00000001
WPUA2                             00000002
WPUA4                             00000004
WPUA5                             00000005
WPUB                              00000115
WPUB4                             00000004
WPUB5                             00000005
WPUB6                             00000006
WPUB7                             00000007
WR                                00000001
WREN                              00000002
WRERR                             00000003
WSAVE                             00000072
WUE                               00000001
Z                                 00000002
_00106_DS_                        0000005D
_00108_DS_                        0000001F
_00111_DS_                        00000063
_00113_DS_                        0000008D
_00114_DS_                        000000A8
_00116_DS_                        000000AE
_00119_DS_                        000000C5
_00139_DS_                        00000057
_00145_DS_                        00000052
_00147_DS_                        00000003
_00155_DS_                        00000027
gpasm-1.4.0 #1107 (May  9 2015) build/default   1-6-2017  19:28:11          PAGE 32


SYMBOL TABLE
  LABEL                             VALUE 

_00156_DS_                        0000004B
_00162_DS_                        0000005B
_00166_DS_                        0000000F
_00167_DS_                        00000006
_00169_DS_                        0000007D
_00174_DS_                        00000057
_00181_DS_                        00000008
_00183_DS_                        0000002B
_00188_DS_                        0000002C
_00193_DS_                        0000000D
_00195_DS_                        00000034
_ADCON0                           00000000
_ADCON0bits                       00000000
_ADCON1                           00000000
_ADCON1bits                       00000000
_ADRESH                           00000000
_ADRESL                           00000000
_ANSEL                            00000000
_ANSELH                           00000000
_ANSELHbits                       00000000
_ANSELbits                        00000000
_BAUDCTL                          00000000
_BAUDCTLbits                      00000000
_BOD_NSLEEP                       00003EFF
_BOD_OFF                          00003CFF
_BOD_ON                           00003FFF
_BOD_SBODEN                       00003DFF
_BOREN_NSLEEP                     00003EFF
_BOREN_OFF                        00003CFF
_BOREN_ON                         00003FFF
_BOREN_SBODEN                     00003DFF
_BOR_NSLEEP                       00003EFF
_BOR_OFF                          00003CFF
_BOR_ON                           00003FFF
_BOR_SBODEN                       00003DFF
_CCP1CON                          00000000
_CCP1CONbits                      00000000
_CCPR                             00000000
_CCPR1H                           00000000
_CCPR1L                           00000000
_CM1CON0                          00000000
_CM1CON0bits                      00000000
_CM2CON0                          00000000
_CM2CON0bits                      00000000
_CM2CON1                          00000000
_CM2CON1bits                      00000000
_CONFIG                           00002007
_CPD_OFF                          00003FFF
_CPD_ON                           00003F7F
_CP_OFF                           00003FFF
_CP_ON                            00003FBF
_DEVID1                           00002006
_ECCPAS                           00000000
gpasm-1.4.0 #1107 (May  9 2015) build/default   1-6-2017  19:28:11          PAGE 33


SYMBOL TABLE
  LABEL                             VALUE 

_ECCPASbits                       00000000
_EC_OSC                           00003FFB
_EEADR                            00000000
_EEADRH                           00000000
_EECON1                           00000000
_EECON1bits                       00000000
_EECON2                           00000000
_EEDAT                            00000000
_EEDATA                           00000000
_EEDATH                           00000000
_EXTRC                            00003FFF
_EXTRCIO                          00003FFE
_EXTRC_OSC_CLKOUT                 00003FFF
_EXTRC_OSC_NOCLKOUT               00003FFE
_FCMEN_OFF                        000037FF
_FCMEN_ON                         00003FFF
_FOSC_EC                          00003FFB
_FOSC_EXTRCCLK                    00003FFF
_FOSC_EXTRCIO                     00003FFE
_FOSC_HS                          00003FFA
_FOSC_INTRCCLK                    00003FFD
_FOSC_INTRCIO                     00003FFC
_FOSC_LP                          00003FF8
_FOSC_XT                          00003FF9
_FSR                              00000000
_HS_OSC                           00003FFA
_IDLOC0                           00002000
_IDLOC1                           00002001
_IDLOC2                           00002002
_IDLOC3                           00002003
_IESO_OFF                         00003BFF
_IESO_ON                          00003FFF
_INDF                             00000000
_INTCON                           00000000
_INTCONbits                       00000000
_INTOSC                           00003FFD
_INTOSCIO                         00003FFC
_INTRC_OSC_CLKOUT                 00003FFD
_INTRC_OSC_NOCLKOUT               00003FFC
_IOC                              00000000
_IOCA                             00000000
_IOCAbits                         00000000
_IOCB                             00000000
_IOCBbits                         00000000
_IOCbits                          00000000
_LP_OSC                           00003FF8
_MCLRE_OFF                        00003FDF
_MCLRE_ON                         00003FFF
_MSK                              00000000
_MSKbits                          00000000
_OPTION_REG                       00000000
_OPTION_REGbits                   00000000
_OSCCON                           00000000
gpasm-1.4.0 #1107 (May  9 2015) build/default   1-6-2017  19:28:11          PAGE 34


SYMBOL TABLE
  LABEL                             VALUE 

_OSCCONbits                       00000000
_OSCTUNE                          00000000
_OSCTUNEbits                      00000000
_PCL                              00000000
_PCLATH                           00000000
_PCON                             00000000
_PCONbits                         00000000
_PIE1                             00000000
_PIE1bits                         00000000
_PIE2                             00000000
_PIE2bits                         00000000
_PIR1                             00000000
_PIR1bits                         00000000
_PIR2                             00000000
_PIR2bits                         00000000
_PORTA                            00000000
_PORTAbits                        00000000
_PORTB                            00000000
_PORTBbits                        00000000
_PORTC                            00000000
_PORTCbits                        00000000
_PR2                              00000000
_PSTRCON                          00000000
_PSTRCONbits                      00000000
_PWM1CON                          00000000
_PWM1CONbits                      00000000
_PWRTE_OFF                        00003FFF
_PWRTE_ON                         00003FEF
_RCREG                            00000000
_RCSTA                            00000000
_RCSTAbits                        00000000
_SPBRG                            00000000
_SPBRGH                           00000000
_SPBRGHbits                       00000000
_SPBRGbits                        00000000
_SP_send                          00000000
_SP_send_error                    00000000
_SRCON                            00000000
_SRCONbits                        00000000
_SSPADD                           00000000
_SSPBUF                           00000000
_SSPCON                           00000000
_SSPCONbits                       00000000
_SSPMSK                           00000000
_SSPMSKbits                       00000000
_SSPSTAT                          00000000
_SSPSTATbits                      00000000
_STATUS                           00000000
_STATUSbits                       00000000
_S_main__SP_send_001C             0000001C
_S_main__SP_send_0026             00000026
_S_main__SP_send_error_0021       00000021
_S_main__circBufPush_0022         00000022
gpasm-1.4.0 #1107 (May  9 2015) build/default   1-6-2017  19:28:11          PAGE 35


SYMBOL TABLE
  LABEL                             VALUE 

_S_main__dec_to_ascii_0021        00000021
_S_main__dec_to_ascii_003E        0000003E
_S_main__dec_to_ascii_007B        0000007B
_S_main__main_0002                00000002
_S_main__main_000E                0000000E
_S_main__main_001E                0000001E
_S_main__main_0026                00000026
_S_main__main_0036                00000036
_T1CON                            00000000
_T1CONbits                        00000000
_T2CON                            00000000
_T2CONbits                        00000000
_TMR0                             00000000
_TMR1                             00000000
_TMR1H                            00000000
_TMR1L                            00000000
_TMR2                             00000000
_TRISA                            00000000
_TRISAbits                        00000000
_TRISB                            00000000
_TRISBbits                        00000000
_TRISC                            00000000
_TRISCbits                        00000000
_TXREG                            00000000
_TXSTA                            00000000
_TXSTAbits                        00000000
_VRCON                            00000000
_VRCONbits                        00000000
_WDTCON                           00000000
_WDTCONbits                       00000000
_WDTE_OFF                         00003FF7
_WDTE_ON                          00003FFF
_WDT_OFF                          00003FF7
_WDT_ON                           00003FFF
_WPU                              00000000
_WPUA                             00000000
_WPUAbits                         00000000
_WPUB                             00000000
_WPUBbits                         00000000
_WPUbits                          00000000
_XT_OSC                           00003FF9
__16F690                          00000001
__CODE_END                        00000FFF
__CODE_START                      00000000
__COMMON_RAM_END                  0000007F
__COMMON_RAM_START                00000070
__EEPROM_END                      000021FF
__EEPROM_START                    00002100
__VECTOR_INT                      00000004
__VECTOR_RESET                    00000000
___sdcc_saved_fsr                 00000000
__divuint                         00000000
__gptrget1                        00000000
gpasm-1.4.0 #1107 (May  9 2015) build/default   1-6-2017  19:28:11          PAGE 36


SYMBOL TABLE
  LABEL                             VALUE 

__moduint                         00000000
__sdcc_gsinit_startup             00000000
__sdcc_interrupt                  00000004
_bitfield                         00000000
_buf                              00000000
_buf_err                          00000000
_buf_head                         00000000
_buf_tail                         00000000
_c_interrupt_00C4                 000000C4
_circBufPush                      00000000
_dec_to_ascii                     00000000
_dec_to_ascii_number_1_20         00000021
_enter                            00000000
_init                             00000000
_int_err                          00000000
_int_error_cnt                    00000000
_main                             00000000
_receive_intr                     00000004
_strV0                            00000000
_strV1                            00000000
_strVF                            00000000
_strt                             00000000
_strt1                            00000000
_strw                             00000000
_strw1                            00000000
_sync                             00000000
_t                                00000000
_t1                               00000000
_tab                              00000000
_w                                00000000
_w1                               00000000
r0x1021                           0000001B
r0x1022                           0000001A
r0x1023                           00000019
r0x1024                           0000001C
r0x1025                           0000001D
r0x1026                           0000001E
r0x1027                           0000001F
r0x1028                           00000020
r0x1029                           00000006
r0x102A                           00000007
r0x102B                           00000009
r0x102C                           00000008
r0x102D                           0000000A
r0x102E                           00000013
r0x102F                           00000012
r0x1030                           00000011
r0x1031                           00000014
r0x1032                           00000015
r0x1033                           00000016
r0x1034                           00000017
r0x1035                           00000018
r0x1036                           0000000C
gpasm-1.4.0 #1107 (May  9 2015) build/default   1-6-2017  19:28:11          PAGE 37


SYMBOL TABLE
  LABEL                             VALUE 

r0x1037                           0000000B
r0x1038                           0000000D
r0x1039                           0000000E
r0x103A                           0000000F
r0x103D                           00000010
r0x103E                           00000004
r0x103F                           00000003
r0x1040                           00000005
r0x1041                           00000000
r0x1042                           00000001
r0x1043                           00000002

Errors   :     0
Warnings :     0 reported,     0 suppressed
Messages :     0 reported,     0 suppressed

