gpasm-1.4.0 #1107 (May  9 2015) build/default   1-18-2017  21:08:51         PAGE  1


LOC    OBJECT CODE    LINE  SOURCE TEXT
  VALUE

                      00001 ;--------------------------------------------------------
                      00002 ; File Created by SDCC : free open source ANSI-C Compiler
                      00003 ; Version 3.6.0 #9615 (Linux)
                      00004 ;--------------------------------------------------------
                      00005 ; PIC port for the 14-bit core
                      00006 ;--------------------------------------------------------
                      00007 ;       .file   "init.c"
                      00008         list    p=16f690
                      00009         radix dec
                      00010         include "p16f690.inc"
                      00001         LIST
                      00002 
                      00003 ;==========================================================================
                      00004 ; Build date : Aug 07 2014
                      00005 ;  MPASM PIC16F690 processor include
                      00006 ; 
                      00007 ;  (c) Copyright 1999-2014 Microchip Technology, All rights reserved
                      00008 ;==========================================================================
                      00009 
                      00757         LIST
                      00011 ;--------------------------------------------------------
                      00012 ; external declarations
                      00013 ;--------------------------------------------------------
  0000                00014         extern  _circBufPush
  0000                00015         extern  _STATUSbits
  0000                00016         extern  _PORTAbits
  0000                00017         extern  _PORTBbits
  0000                00018         extern  _PORTCbits
  0000                00019         extern  _INTCONbits
  0000                00020         extern  _PIR1bits
  0000                00021         extern  _PIR2bits
  0000                00022         extern  _T1CONbits
  0000                00023         extern  _T2CONbits
  0000                00024         extern  _SSPCONbits
  0000                00025         extern  _CCP1CONbits
  0000                00026         extern  _RCSTAbits
  0000                00027         extern  _PWM1CONbits
  0000                00028         extern  _ECCPASbits
  0000                00029         extern  _ADCON0bits
  0000                00030         extern  _OPTION_REGbits
  0000                00031         extern  _TRISAbits
  0000                00032         extern  _TRISBbits
  0000                00033         extern  _TRISCbits
  0000                00034         extern  _PIE1bits
  0000                00035         extern  _PIE2bits
  0000                00036         extern  _PCONbits
  0000                00037         extern  _OSCCONbits
  0000                00038         extern  _OSCTUNEbits
  0000                00039         extern  _MSKbits
  0000                00040         extern  _SSPMSKbits
  0000                00041         extern  _SSPSTATbits
  0000                00042         extern  _WPUbits
  0000                00043         extern  _WPUAbits
gpasm-1.4.0 #1107 (May  9 2015) build/default   1-18-2017  21:08:51         PAGE  2


LOC    OBJECT CODE    LINE  SOURCE TEXT
  VALUE

  0000                00044         extern  _IOCbits
  0000                00045         extern  _IOCAbits
  0000                00046         extern  _WDTCONbits
  0000                00047         extern  _TXSTAbits
  0000                00048         extern  _SPBRGbits
  0000                00049         extern  _SPBRGHbits
  0000                00050         extern  _BAUDCTLbits
  0000                00051         extern  _ADCON1bits
  0000                00052         extern  _WPUBbits
  0000                00053         extern  _IOCBbits
  0000                00054         extern  _VRCONbits
  0000                00055         extern  _CM1CON0bits
  0000                00056         extern  _CM2CON0bits
  0000                00057         extern  _CM2CON1bits
  0000                00058         extern  _ANSELbits
  0000                00059         extern  _ANSELHbits
  0000                00060         extern  _EECON1bits
  0000                00061         extern  _PSTRCONbits
  0000                00062         extern  _SRCONbits
  0000                00063         extern  _INDF
  0000                00064         extern  _TMR0
  0000                00065         extern  _PCL
  0000                00066         extern  _STATUS
  0000                00067         extern  _FSR
  0000                00068         extern  _PORTA
  0000                00069         extern  _PORTB
  0000                00070         extern  _PORTC
  0000                00071         extern  _PCLATH
  0000                00072         extern  _INTCON
  0000                00073         extern  _PIR1
  0000                00074         extern  _PIR2
  0000                00075         extern  _TMR1
  0000                00076         extern  _TMR1L
  0000                00077         extern  _TMR1H
  0000                00078         extern  _T1CON
  0000                00079         extern  _TMR2
  0000                00080         extern  _T2CON
  0000                00081         extern  _SSPBUF
  0000                00082         extern  _SSPCON
  0000                00083         extern  _CCPR
  0000                00084         extern  _CCPR1L
  0000                00085         extern  _CCPR1H
  0000                00086         extern  _CCP1CON
  0000                00087         extern  _RCSTA
  0000                00088         extern  _TXREG
  0000                00089         extern  _RCREG
  0000                00090         extern  _PWM1CON
  0000                00091         extern  _ECCPAS
  0000                00092         extern  _ADRESH
  0000                00093         extern  _ADCON0
  0000                00094         extern  _OPTION_REG
  0000                00095         extern  _TRISA
  0000                00096         extern  _TRISB
gpasm-1.4.0 #1107 (May  9 2015) build/default   1-18-2017  21:08:51         PAGE  3


LOC    OBJECT CODE    LINE  SOURCE TEXT
  VALUE

  0000                00097         extern  _TRISC
  0000                00098         extern  _PIE1
  0000                00099         extern  _PIE2
  0000                00100         extern  _PCON
  0000                00101         extern  _OSCCON
  0000                00102         extern  _OSCTUNE
  0000                00103         extern  _PR2
  0000                00104         extern  _MSK
  0000                00105         extern  _SSPADD
  0000                00106         extern  _SSPMSK
  0000                00107         extern  _SSPSTAT
  0000                00108         extern  _WPU
  0000                00109         extern  _WPUA
  0000                00110         extern  _IOC
  0000                00111         extern  _IOCA
  0000                00112         extern  _WDTCON
  0000                00113         extern  _TXSTA
  0000                00114         extern  _SPBRG
  0000                00115         extern  _SPBRGH
  0000                00116         extern  _BAUDCTL
  0000                00117         extern  _ADRESL
  0000                00118         extern  _ADCON1
  0000                00119         extern  _EEDAT
  0000                00120         extern  _EEDATA
  0000                00121         extern  _EEADR
  0000                00122         extern  _EEDATH
  0000                00123         extern  _EEADRH
  0000                00124         extern  _WPUB
  0000                00125         extern  _IOCB
  0000                00126         extern  _VRCON
  0000                00127         extern  _CM1CON0
  0000                00128         extern  _CM2CON0
  0000                00129         extern  _CM2CON1
  0000                00130         extern  _ANSEL
  0000                00131         extern  _ANSELH
  0000                00132         extern  _EECON1
  0000                00133         extern  _EECON2
  0000                00134         extern  _PSTRCON
  0000                00135         extern  _SRCON
                      00136 
  0000                00137         extern PSAVE
  0000                00138         extern SSAVE
  0000                00139         extern WSAVE
  0000                00140         extern STK12
  0000                00141         extern STK11
  0000                00142         extern STK10
  0000                00143         extern STK09
  0000                00144         extern STK08
  0000                00145         extern STK07
  0000                00146         extern STK06
  0000                00147         extern STK05
  0000                00148         extern STK04
  0000                00149         extern STK03
gpasm-1.4.0 #1107 (May  9 2015) build/default   1-18-2017  21:08:51         PAGE  4


LOC    OBJECT CODE    LINE  SOURCE TEXT
  VALUE

  0000                00150         extern STK02
  0000                00151         extern STK01
  0000                00152         extern STK00
                      00153 ;--------------------------------------------------------
                      00154 ; global declarations
                      00155 ;--------------------------------------------------------
  0000                00156         global  _init
                      00157 
                      00158 ;--------------------------------------------------------
                      00159 ; global definitions
                      00160 ;--------------------------------------------------------
                      00161 ;--------------------------------------------------------
                      00162 ; absolute symbol definitions
                      00163 ;--------------------------------------------------------
                      00164 ;--------------------------------------------------------
                      00165 ; compiler-defined variables
                      00166 ;--------------------------------------------------------
                      00167 ;--------------------------------------------------------
                      00168 ; initialized data
                      00169 ;--------------------------------------------------------
                      00170 ;--------------------------------------------------------
                      00171 ; overlayable items in internal ram 
                      00172 ;--------------------------------------------------------
                      00173 ;       udata_ovr
                      00174 ;--------------------------------------------------------
                      00175 ; code
                      00176 ;--------------------------------------------------------
                      00177 code_init       code
                      00178 ;***
                      00179 ;  pBlock Stats: dbName = C
                      00180 ;***
                      00181 ;has an exit
                      00182 ;; Starting pCode block
                      00183 S_init__init    code
0000                  00184 _init:
                      00185 ; 2 exit points
                      00186 ;       .line   8; "init.c"     ADC2_TRIS = 1;
0000   ???? ????      00187         BANKSEL _TRISAbits
0002   15??           00188         BSF     _TRISAbits,2
                      00189 ;       .line   9; "init.c"     ADC4_TRIS = 1;
0003   16??           00190         BSF     _TRISAbits,4
                      00191 ;       .line   11; "init.c"    RCIN_TRIS=1;            //Input
0004   16??           00192         BSF     _TRISCbits,5
                      00193 ;       .line   13; "init.c"    TX_TRIS=0;               // These need to be 0 for USART to work
0005   13??           00194         BCF     _TRISBbits,7
                      00195 ;       .line   14; "init.c"    RX_TRIS=1;               // These need to be 1 for USART to work
0006   16??           00196         BSF     _TRISBbits,5
                      00197 ;       .line   15; "init.c"    ADCON1=0x50;             //ADC Settings
0007   3050           00198         MOVLW   0x50
0008   00??           00199         MOVWF   _ADCON1
                      00200 ;       .line   16; "init.c"    ANS11=0;                 // Turn off Analog input it necessary to functi
                            on serial port RX
0009   ???? ????      00201         BANKSEL _ANSELHbits
gpasm-1.4.0 #1107 (May  9 2015) build/default   1-18-2017  21:08:51         PAGE  5


LOC    OBJECT CODE    LINE  SOURCE TEXT
  VALUE

000B   11??           00202         BCF     _ANSELHbits,3
                      00203 ;       .line   17; "init.c"    ANS10=0;
000C   11??           00204         BCF     _ANSELHbits,2
                      00205 ;       .line   18; "init.c"    ANS7=0;
000D   13??           00206         BCF     _ANSELbits,7
                      00207 ;       .line   19; "init.c"    ANS8=0;
000E   10??           00208         BCF     _ANSELHbits,0
                      00209 ;       .line   20; "init.c"    ANS9=0;
000F   10??           00210         BCF     _ANSELHbits,1
                      00211 ;       .line   21; "init.c"    ANS4=0;
0010   12??           00212         BCF     _ANSELbits,4
                      00213 ;       .line   22; "init.c"    ANS2=1;                      //Zapnuti Analogovych vstupu
0011   15??           00214         BSF     _ANSELbits,2
                      00215 ;       .line   23; "init.c"    ANS3=1;
0012   15??           00216         BSF     _ANSELbits,3
                      00217 ;       .line   25; "init.c"    OUT_TRIS=0;             //Output
0013   ???? ????      00218         BANKSEL _TRISCbits
0015   10??           00219         BCF     _TRISCbits,0
                      00220 ;       .line   29; "init.c"    SPBRG=8;                // Baud Rate
0016   3008           00221         MOVLW   0x08
0017   00??           00222         MOVWF   _SPBRG
                      00223 ;       .line   30; "init.c"    BRGH=1;                 // 115.2k
0018   15??           00224         BSF     _TXSTAbits,2
                      00225 ;       .line   31; "init.c"    BRG16=1;
0019   15??           00226         BSF     _BAUDCTLbits,3
                      00227 ;       .line   33; "init.c"    TXEN=1;                 // Enable transmission mode
001A   16??           00228         BSF     _TXSTAbits,5
                      00229 ;       .line   34; "init.c"    SYNC=0;                 // Disable Synchronous/Enable Asynchronous
001B   12??           00230         BCF     _TXSTAbits,4
                      00231 ;       .line   35; "init.c"    SPEN=1;                 // Enable serial port
001C   ???? ????      00232         BANKSEL _RCSTAbits
001E   17??           00233         BSF     _RCSTAbits,7
                      00234 ;       .line   57; "init.c"    T0CS = 0;       // Clear to enable timer mode.
001F   ???? ????      00235         BANKSEL _OPTION_REGbits
0021   12??           00236         BCF     _OPTION_REGbits,5
                      00237 ;       .line   58; "init.c"    PSA = 0;        // Clear to assign prescaler to Timer 0.
0022   11??           00238         BCF     _OPTION_REGbits,3
                      00239 ;       .line   59; "init.c"    PS2 = 1;        // Set up prescaler to 1:1.
0023   15??           00240         BSF     _OPTION_REGbits,2
                      00241 ;       .line   60; "init.c"    PS1 = 1;
0024   14??           00242         BSF     _OPTION_REGbits,1
                      00243 ;       .line   61; "init.c"    PS0 = 0;
0025   10??           00244         BCF     _OPTION_REGbits,0
                      00245 ;       .line   80; "init.c"    T1CON = 0;  // TIMER1 presccaler 1
0026   ???? ????      00246         BANKSEL _T1CON
0028   01??           00247         CLRF    _T1CON
                      00248 ;       .line   87; "init.c"    CCP1CON = 5; 
0029   3005           00249         MOVLW   0x05
002A   00??           00250         MOVWF   _CCP1CON
                      00251 ;       .line   88; "init.c"    CCP1IE = 0;     // ENHANCED CAPTURE MODULE Interrupt Disabled
002B   ???? ????      00252         BANKSEL _PIE1bits
002D   11??           00253         BCF     _PIE1bits,2
                      00254 ;       .line   89; "init.c"    CCP1IF = 0;
gpasm-1.4.0 #1107 (May  9 2015) build/default   1-18-2017  21:08:51         PAGE  6


LOC    OBJECT CODE    LINE  SOURCE TEXT
  VALUE

002E   ???? ????      00255         BANKSEL _PIR1bits
0030   11??           00256         BCF     _PIR1bits,2
                      00257 ;       .line   97; "init.c"    PEIE = 1;       // Enable peripheral interrupts.
0031   17??           00258         BSF     _INTCONbits,6
                      00259 ;       .line   98; "init.c"    GIE = 1;        // Enable all interrupts.
0032   17??           00260         BSF     _INTCONbits,7
                      00261 ;       .line   101; "init.c"   TMR1H = 0;
0033   01??           00262         CLRF    _TMR1H
                      00263 ;       .line   102; "init.c"   TMR1L = 0;
0034   01??           00264         CLRF    _TMR1L
                      00265 ;       .line   103; "init.c"   CCP1IE = 1;
0035   ???? ????      00266         BANKSEL _PIE1bits
0037   15??           00267         BSF     _PIE1bits,2
                      00268 ;       .line   104; "init.c"   TMR1ON = 1;
0038   ???? ????      00269         BANKSEL _T1CONbits
003A   14??           00270         BSF     _T1CONbits,0
003B   0008           00271         RETURN  
                      00272 ; exit point of _init
                      00273 
                      00274 
                      00275 ;       code size estimation:
                      00276 ;          40+   10 =    50 instructions (  120 byte)
                      00277 
                      00278         end
gpasm-1.4.0 #1107 (May  9 2015) build/default   1-18-2017  21:08:51         PAGE  7


SYMBOL TABLE
  LABEL                             VALUE

ABDEN                             00000000
ABDOVF                            00000007
ADCON0                            0000001F
ADCON1                            0000009F
ADCS0                             00000004
ADCS1                             00000005
ADCS2                             00000006
ADDEN                             00000003
ADFM                              00000007
ADIE                              00000006
ADIF                              00000006
ADON                              00000000
ADRESH                            0000001E
ADRESL                            0000009E
ANS0                              00000000
ANS1                              00000001
ANS10                             00000002
ANS11                             00000003
ANS2                              00000002
ANS3                              00000003
ANS4                              00000004
ANS5                              00000005
ANS6                              00000006
ANS7                              00000007
ANS8                              00000000
ANS9                              00000001
ANSEL                             0000011E
ANSELH                            0000011F
BAUDCTL                           0000009B
BF                                00000000
BRG0                              00000000
BRG1                              00000001
BRG10                             00000002
BRG11                             00000003
BRG12                             00000004
BRG13                             00000005
BRG14                             00000006
BRG15                             00000007
BRG16                             00000003
BRG2                              00000002
BRG3                              00000003
BRG4                              00000004
BRG5                              00000005
BRG6                              00000006
BRG7                              00000007
BRG8                              00000000
BRG9                              00000001
BRGH                              00000002
C                                 00000000
C1CH0                             00000000
C1CH1                             00000001
C1IE                              00000005
C1IF                              00000005
gpasm-1.4.0 #1107 (May  9 2015) build/default   1-18-2017  21:08:51         PAGE  8


SYMBOL TABLE
  LABEL                             VALUE 

C1OE                              00000005
C1ON                              00000007
C1OUT                             00000006
C1POL                             00000004
C1R                               00000002
C1SEN                             00000005
C1VREN                            00000007
C2CH0                             00000000
C2CH1                             00000001
C2IE                              00000006
C2IF                              00000006
C2OE                              00000005
C2ON                              00000007
C2OUT                             00000006
C2POL                             00000004
C2R                               00000002
C2REN                             00000004
C2SYNC                            00000000
C2VREN                            00000006
CCP1CON                           00000017
CCP1IE                            00000002
CCP1IF                            00000002
CCP1M0                            00000000
CCP1M1                            00000001
CCP1M2                            00000002
CCP1M3                            00000003
CCPR                              00000015
CCPR1H                            00000016
CCPR1L                            00000015
CHS0                              00000002
CHS1                              00000003
CHS2                              00000004
CHS3                              00000005
CKE                               00000006
CKP                               00000004
CM1CON0                           00000119
CM2CON0                           0000011A
CM2CON1                           0000011B
CREN                              00000004
CSRC                              00000007
D                                 00000005
DATA_ADDRESS                      00000005
DC                                00000001
DC1B0                             00000004
DC1B1                             00000005
D_A                               00000005
D_NOT_A                           00000005
ECCPAS                            0000001D
ECCPAS0                           00000004
ECCPAS1                           00000005
ECCPAS2                           00000006
ECCPASE                           00000007
EEADR                             0000010D
gpasm-1.4.0 #1107 (May  9 2015) build/default   1-18-2017  21:08:51         PAGE  9


SYMBOL TABLE
  LABEL                             VALUE 

EEADRH                            0000010F
EECON1                            0000018C
EECON2                            0000018D
EEDAT                             0000010C
EEDATA                            0000010C
EEDATH                            0000010E
EEIE                              00000004
EEIF                              00000004
EEPGD                             00000007
F                                 00000001
FERR                              00000002
FSR                               00000004
GIE                               00000007
GO                                00000001
GO_DONE                           00000001
GO_NOT_DONE                       00000001
HTS                               00000002
I2C_DATA                          00000005
I2C_READ                          00000002
I2C_START                         00000003
I2C_STOP                          00000004
INDF                              00000000
INTCON                            0000000B
INTE                              00000004
INTEDG                            00000006
INTF                              00000001
IOC                               00000096
IOC0                              00000000
IOC1                              00000001
IOC2                              00000002
IOC3                              00000003
IOC4                              00000004
IOC5                              00000005
IOCA                              00000096
IOCA0                             00000000
IOCA1                             00000001
IOCA2                             00000002
IOCA3                             00000003
IOCA4                             00000004
IOCA5                             00000005
IOCB                              00000116
IOCB4                             00000004
IOCB5                             00000005
IOCB6                             00000006
IOCB7                             00000007
IRCF0                             00000004
IRCF1                             00000005
IRCF2                             00000006
IRP                               00000007
LTS                               00000001
MC1OUT                            00000007
MC2OUT                            00000006
MSK                               00000093
gpasm-1.4.0 #1107 (May  9 2015) build/default   1-18-2017  21:08:51         PAGE 10


SYMBOL TABLE
  LABEL                             VALUE 

MSK0                              00000000
MSK1                              00000001
MSK2                              00000002
MSK3                              00000003
MSK4                              00000004
MSK5                              00000005
MSK6                              00000006
MSK7                              00000007
NOT_A                             00000005
NOT_ADDRESS                       00000005
NOT_BOR                           00000000
NOT_DONE                          00000001
NOT_PD                            00000003
NOT_POR                           00000001
NOT_RABPU                         00000007
NOT_T1SYNC                        00000002
NOT_TO                            00000004
NOT_W                             00000002
NOT_WRITE                         00000002
OERR                              00000001
OPTION_REG                        00000081
OSCCON                            0000008F
OSCTUNE                           00000090
OSFIE                             00000007
OSFIF                             00000007
OSTS                              00000003
P                                 00000004
P1M0                              00000006
P1M1                              00000007
PCL                               00000002
PCLATH                            0000000A
PCON                              0000008E
PDC0                              00000000
PDC1                              00000001
PDC2                              00000002
PDC3                              00000003
PDC4                              00000004
PDC5                              00000005
PDC6                              00000006
PEIE                              00000006
PIE1                              0000008C
PIE2                              0000008D
PIR1                              0000000C
PIR2                              0000000D
PORTA                             00000005
PORTB                             00000006
PORTC                             00000007
PR2                               00000092
PRSEN                             00000007
PS0                               00000000
PS1                               00000001
PS2                               00000002
PSA                               00000003
gpasm-1.4.0 #1107 (May  9 2015) build/default   1-18-2017  21:08:51         PAGE 11


SYMBOL TABLE
  LABEL                             VALUE 

PSAVE                             00000000
PSSAC0                            00000002
PSSAC1                            00000003
PSSBD0                            00000000
PSSBD1                            00000001
PSTRCON                           0000019D
PULSR                             00000002
PULSS                             00000003
PWM1CON                           0000001C
R                                 00000002
RA0                               00000000
RA1                               00000001
RA2                               00000002
RA3                               00000003
RA4                               00000004
RA5                               00000005
RABIE                             00000003
RABIF                             00000000
RB4                               00000004
RB5                               00000005
RB6                               00000006
RB7                               00000007
RC0                               00000000
RC1                               00000001
RC2                               00000002
RC3                               00000003
RC4                               00000004
RC5                               00000005
RC6                               00000006
RC7                               00000007
RCIDL                             00000006
RCIE                              00000005
RCIF                              00000005
RCREG                             0000001A
RCSTA                             00000018
RD                                00000000
READ_WRITE                        00000002
RP0                               00000005
RP1                               00000006
RX9                               00000006
RX9D                              00000000
R_NOT_W                           00000002
R_W                               00000002
S                                 00000003
SBOREN                            00000004
SCKP                              00000004
SCS                               00000000
SENB                              00000003
SENDB                             00000003
SMP                               00000007
SPBRG                             00000099
SPBRGH                            0000009A
SPEN                              00000007
gpasm-1.4.0 #1107 (May  9 2015) build/default   1-18-2017  21:08:51         PAGE 12


SYMBOL TABLE
  LABEL                             VALUE 

SR0                               00000006
SR1                               00000007
SRCON                             0000019E
SREN                              00000005
SSAVE                             00000000
SSPADD                            00000093
SSPBUF                            00000013
SSPCON                            00000014
SSPEN                             00000005
SSPIE                             00000003
SSPIF                             00000003
SSPM0                             00000000
SSPM1                             00000001
SSPM2                             00000002
SSPM3                             00000003
SSPMSK                            00000093
SSPOV                             00000006
SSPSTAT                           00000094
STATUS                            00000003
STK00                             00000000
STK01                             00000000
STK02                             00000000
STK03                             00000000
STK04                             00000000
STK05                             00000000
STK06                             00000000
STK07                             00000000
STK08                             00000000
STK09                             00000000
STK10                             00000000
STK11                             00000000
STK12                             00000000
STRA                              00000000
STRB                              00000001
STRC                              00000002
STRD                              00000003
STRSYNC                           00000004
SWDTEN                            00000000
SYNC                              00000004
T0CS                              00000005
T0IE                              00000005
T0IF                              00000002
T0SE                              00000004
T1CKPS0                           00000004
T1CKPS1                           00000005
T1CON                             00000010
T1GINV                            00000007
T1GSS                             00000001
T1IE                              00000000
T1IF                              00000000
T1OSCEN                           00000003
T2CKPS0                           00000000
T2CKPS1                           00000001
gpasm-1.4.0 #1107 (May  9 2015) build/default   1-18-2017  21:08:51         PAGE 13


SYMBOL TABLE
  LABEL                             VALUE 

T2CON                             00000012
T2IE                              00000001
T2IF                              00000001
TMR0                              00000001
TMR1                              0000000E
TMR1CS                            00000001
TMR1GE                            00000006
TMR1H                             0000000F
TMR1IE                            00000000
TMR1IF                            00000000
TMR1L                             0000000E
TMR1ON                            00000000
TMR2                              00000011
TMR2IE                            00000001
TMR2IF                            00000001
TMR2ON                            00000002
TOUTPS0                           00000003
TOUTPS1                           00000004
TOUTPS2                           00000005
TOUTPS3                           00000006
TRISA                             00000085
TRISA0                            00000000
TRISA1                            00000001
TRISA2                            00000002
TRISA3                            00000003
TRISA4                            00000004
TRISA5                            00000005
TRISB                             00000086
TRISB4                            00000004
TRISB5                            00000005
TRISB6                            00000006
TRISB7                            00000007
TRISC                             00000087
TRISC0                            00000000
TRISC1                            00000001
TRISC2                            00000002
TRISC3                            00000003
TRISC4                            00000004
TRISC5                            00000005
TRISC6                            00000006
TRISC7                            00000007
TRMT                              00000001
TUN0                              00000000
TUN1                              00000001
TUN2                              00000002
TUN3                              00000003
TUN4                              00000004
TX9                               00000006
TX9D                              00000000
TXEN                              00000005
TXIE                              00000004
TXIF                              00000004
TXREG                             00000019
gpasm-1.4.0 #1107 (May  9 2015) build/default   1-18-2017  21:08:51         PAGE 14


SYMBOL TABLE
  LABEL                             VALUE 

TXSTA                             00000098
UA                                00000001
ULPWUE                            00000005
VCFG                              00000006
VP6EN                             00000004
VR0                               00000000
VR1                               00000001
VR2                               00000002
VR3                               00000003
VRCON                             00000118
VRR                               00000005
W                                 00000000
WCOL                              00000007
WDTCON                            00000097
WDTPS0                            00000001
WDTPS1                            00000002
WDTPS2                            00000003
WDTPS3                            00000004
WPU                               00000095
WPU0                              00000000
WPU1                              00000001
WPU2                              00000002
WPU4                              00000004
WPU5                              00000005
WPUA                              00000095
WPUA0                             00000000
WPUA1                             00000001
WPUA2                             00000002
WPUA4                             00000004
WPUA5                             00000005
WPUB                              00000115
WPUB4                             00000004
WPUB5                             00000005
WPUB6                             00000006
WPUB7                             00000007
WR                                00000001
WREN                              00000002
WRERR                             00000003
WSAVE                             00000000
WUE                               00000001
Z                                 00000002
_ADCON0                           00000000
_ADCON0bits                       00000000
_ADCON1                           00000000
_ADCON1bits                       00000000
_ADRESH                           00000000
_ADRESL                           00000000
_ANSEL                            00000000
_ANSELH                           00000000
_ANSELHbits                       00000000
_ANSELbits                        00000000
_BAUDCTL                          00000000
_BAUDCTLbits                      00000000
gpasm-1.4.0 #1107 (May  9 2015) build/default   1-18-2017  21:08:51         PAGE 15


SYMBOL TABLE
  LABEL                             VALUE 

_BOD_NSLEEP                       00003EFF
_BOD_OFF                          00003CFF
_BOD_ON                           00003FFF
_BOD_SBODEN                       00003DFF
_BOREN_NSLEEP                     00003EFF
_BOREN_OFF                        00003CFF
_BOREN_ON                         00003FFF
_BOREN_SBODEN                     00003DFF
_BOR_NSLEEP                       00003EFF
_BOR_OFF                          00003CFF
_BOR_ON                           00003FFF
_BOR_SBODEN                       00003DFF
_CCP1CON                          00000000
_CCP1CONbits                      00000000
_CCPR                             00000000
_CCPR1H                           00000000
_CCPR1L                           00000000
_CM1CON0                          00000000
_CM1CON0bits                      00000000
_CM2CON0                          00000000
_CM2CON0bits                      00000000
_CM2CON1                          00000000
_CM2CON1bits                      00000000
_CONFIG                           00002007
_CPD_OFF                          00003FFF
_CPD_ON                           00003F7F
_CP_OFF                           00003FFF
_CP_ON                            00003FBF
_DEVID1                           00002006
_ECCPAS                           00000000
_ECCPASbits                       00000000
_EC_OSC                           00003FFB
_EEADR                            00000000
_EEADRH                           00000000
_EECON1                           00000000
_EECON1bits                       00000000
_EECON2                           00000000
_EEDAT                            00000000
_EEDATA                           00000000
_EEDATH                           00000000
_EXTRC                            00003FFF
_EXTRCIO                          00003FFE
_EXTRC_OSC_CLKOUT                 00003FFF
_EXTRC_OSC_NOCLKOUT               00003FFE
_FCMEN_OFF                        000037FF
_FCMEN_ON                         00003FFF
_FOSC_EC                          00003FFB
_FOSC_EXTRCCLK                    00003FFF
_FOSC_EXTRCIO                     00003FFE
_FOSC_HS                          00003FFA
_FOSC_INTRCCLK                    00003FFD
_FOSC_INTRCIO                     00003FFC
_FOSC_LP                          00003FF8
gpasm-1.4.0 #1107 (May  9 2015) build/default   1-18-2017  21:08:51         PAGE 16


SYMBOL TABLE
  LABEL                             VALUE 

_FOSC_XT                          00003FF9
_FSR                              00000000
_HS_OSC                           00003FFA
_IDLOC0                           00002000
_IDLOC1                           00002001
_IDLOC2                           00002002
_IDLOC3                           00002003
_IESO_OFF                         00003BFF
_IESO_ON                          00003FFF
_INDF                             00000000
_INTCON                           00000000
_INTCONbits                       00000000
_INTOSC                           00003FFD
_INTOSCIO                         00003FFC
_INTRC_OSC_CLKOUT                 00003FFD
_INTRC_OSC_NOCLKOUT               00003FFC
_IOC                              00000000
_IOCA                             00000000
_IOCAbits                         00000000
_IOCB                             00000000
_IOCBbits                         00000000
_IOCbits                          00000000
_LP_OSC                           00003FF8
_MCLRE_OFF                        00003FDF
_MCLRE_ON                         00003FFF
_MSK                              00000000
_MSKbits                          00000000
_OPTION_REG                       00000000
_OPTION_REGbits                   00000000
_OSCCON                           00000000
_OSCCONbits                       00000000
_OSCTUNE                          00000000
_OSCTUNEbits                      00000000
_PCL                              00000000
_PCLATH                           00000000
_PCON                             00000000
_PCONbits                         00000000
_PIE1                             00000000
_PIE1bits                         00000000
_PIE2                             00000000
_PIE2bits                         00000000
_PIR1                             00000000
_PIR1bits                         00000000
_PIR2                             00000000
_PIR2bits                         00000000
_PORTA                            00000000
_PORTAbits                        00000000
_PORTB                            00000000
_PORTBbits                        00000000
_PORTC                            00000000
_PORTCbits                        00000000
_PR2                              00000000
_PSTRCON                          00000000
gpasm-1.4.0 #1107 (May  9 2015) build/default   1-18-2017  21:08:51         PAGE 17


SYMBOL TABLE
  LABEL                             VALUE 

_PSTRCONbits                      00000000
_PWM1CON                          00000000
_PWM1CONbits                      00000000
_PWRTE_OFF                        00003FFF
_PWRTE_ON                         00003FEF
_RCREG                            00000000
_RCSTA                            00000000
_RCSTAbits                        00000000
_SPBRG                            00000000
_SPBRGH                           00000000
_SPBRGHbits                       00000000
_SPBRGbits                        00000000
_SRCON                            00000000
_SRCONbits                        00000000
_SSPADD                           00000000
_SSPBUF                           00000000
_SSPCON                           00000000
_SSPCONbits                       00000000
_SSPMSK                           00000000
_SSPMSKbits                       00000000
_SSPSTAT                          00000000
_SSPSTATbits                      00000000
_STATUS                           00000000
_STATUSbits                       00000000
_T1CON                            00000000
_T1CONbits                        00000000
_T2CON                            00000000
_T2CONbits                        00000000
_TMR0                             00000000
_TMR1                             00000000
_TMR1H                            00000000
_TMR1L                            00000000
_TMR2                             00000000
_TRISA                            00000000
_TRISAbits                        00000000
_TRISB                            00000000
_TRISBbits                        00000000
_TRISC                            00000000
_TRISCbits                        00000000
_TXREG                            00000000
_TXSTA                            00000000
_TXSTAbits                        00000000
_VRCON                            00000000
_VRCONbits                        00000000
_WDTCON                           00000000
_WDTCONbits                       00000000
_WDTE_OFF                         00003FF7
_WDTE_ON                          00003FFF
_WDT_OFF                          00003FF7
_WDT_ON                           00003FFF
_WPU                              00000000
_WPUA                             00000000
_WPUAbits                         00000000
gpasm-1.4.0 #1107 (May  9 2015) build/default   1-18-2017  21:08:51         PAGE 18


SYMBOL TABLE
  LABEL                             VALUE 

_WPUB                             00000000
_WPUBbits                         00000000
_WPUbits                          00000000
_XT_OSC                           00003FF9
__16F690                          00000001
__CODE_END                        00000FFF
__CODE_START                      00000000
__COMMON_RAM_END                  0000007F
__COMMON_RAM_START                00000070
__EEPROM_END                      000021FF
__EEPROM_START                    00002100
__VECTOR_INT                      00000004
__VECTOR_RESET                    00000000
_circBufPush                      00000000
_init                             00000000

Errors   :     0
Warnings :     0 reported,     0 suppressed
Messages :     0 reported,     0 suppressed

