gpasm-1.4.0 #1107 (May  9 2015) build/default   4-28-2017  14:58:28         PAGE  1


LOC    OBJECT CODE    LINE  SOURCE TEXT
  VALUE

                      00001 ;--------------------------------------------------------
                      00002 ; File Created by SDCC : free open source ANSI-C Compiler
                      00003 ; Version 3.6.0 #9615 (Linux)
                      00004 ;--------------------------------------------------------
                      00005 ; PIC port for the 14-bit core
                      00006 ;--------------------------------------------------------
                      00007 ;       .file   "main.c"
                      00008         list    p=16f690
                      00009         radix dec
                      00010         include "p16f690.inc"
                      00001         LIST
                      00002 
                      00003 ;==========================================================================
                      00004 ; Build date : Aug 07 2014
                      00005 ;  MPASM PIC16F690 processor include
                      00006 ; 
                      00007 ;  (c) Copyright 1999-2014 Microchip Technology, All rights reserved
                      00008 ;==========================================================================
                      00009 
                      00757         LIST
                      00011 ;--------------------------------------------------------
                      00012 ; config word(s)
                      00013 ;--------------------------------------------------------
2007   0000           00014         __config 0x3fd4
                      00015 ;--------------------------------------------------------
                      00016 ; external declarations
                      00017 ;--------------------------------------------------------
  0000                00018         extern  _init
  0000                00019         extern  _dec_to_ascii_buf
  0000                00020         extern  _SP_send_buf
  0000                00021         extern  _SP_send
  0000                00022         extern  _uint8_send
  0000                00023         extern  _ADC_read
  0000                00024         extern  _delay_ms
  0000                00025         extern  _STATUSbits
  0000                00026         extern  _PORTAbits
  0000                00027         extern  _PORTBbits
  0000                00028         extern  _PORTCbits
  0000                00029         extern  _INTCONbits
  0000                00030         extern  _PIR1bits
  0000                00031         extern  _PIR2bits
  0000                00032         extern  _T1CONbits
  0000                00033         extern  _T2CONbits
  0000                00034         extern  _SSPCONbits
  0000                00035         extern  _CCP1CONbits
  0000                00036         extern  _RCSTAbits
  0000                00037         extern  _PWM1CONbits
  0000                00038         extern  _ECCPASbits
  0000                00039         extern  _ADCON0bits
  0000                00040         extern  _OPTION_REGbits
  0000                00041         extern  _TRISAbits
  0000                00042         extern  _TRISBbits
  0000                00043         extern  _TRISCbits
gpasm-1.4.0 #1107 (May  9 2015) build/default   4-28-2017  14:58:28         PAGE  2


LOC    OBJECT CODE    LINE  SOURCE TEXT
  VALUE

  0000                00044         extern  _PIE1bits
  0000                00045         extern  _PIE2bits
  0000                00046         extern  _PCONbits
  0000                00047         extern  _OSCCONbits
  0000                00048         extern  _OSCTUNEbits
  0000                00049         extern  _MSKbits
  0000                00050         extern  _SSPMSKbits
  0000                00051         extern  _SSPSTATbits
  0000                00052         extern  _WPUbits
  0000                00053         extern  _WPUAbits
  0000                00054         extern  _IOCbits
  0000                00055         extern  _IOCAbits
  0000                00056         extern  _WDTCONbits
  0000                00057         extern  _TXSTAbits
  0000                00058         extern  _SPBRGbits
  0000                00059         extern  _SPBRGHbits
  0000                00060         extern  _BAUDCTLbits
  0000                00061         extern  _ADCON1bits
  0000                00062         extern  _WPUBbits
  0000                00063         extern  _IOCBbits
  0000                00064         extern  _VRCONbits
  0000                00065         extern  _CM1CON0bits
  0000                00066         extern  _CM2CON0bits
  0000                00067         extern  _CM2CON1bits
  0000                00068         extern  _ANSELbits
  0000                00069         extern  _ANSELHbits
  0000                00070         extern  _EECON1bits
  0000                00071         extern  _PSTRCONbits
  0000                00072         extern  _SRCONbits
  0000                00073         extern  _INDF
  0000                00074         extern  _TMR0
  0000                00075         extern  _PCL
  0000                00076         extern  _STATUS
  0000                00077         extern  _FSR
  0000                00078         extern  _PORTA
  0000                00079         extern  _PORTB
  0000                00080         extern  _PORTC
  0000                00081         extern  _PCLATH
  0000                00082         extern  _INTCON
  0000                00083         extern  _PIR1
  0000                00084         extern  _PIR2
  0000                00085         extern  _TMR1
  0000                00086         extern  _TMR1L
  0000                00087         extern  _TMR1H
  0000                00088         extern  _T1CON
  0000                00089         extern  _TMR2
  0000                00090         extern  _T2CON
  0000                00091         extern  _SSPBUF
  0000                00092         extern  _SSPCON
  0000                00093         extern  _CCPR
  0000                00094         extern  _CCPR1L
  0000                00095         extern  _CCPR1H
  0000                00096         extern  _CCP1CON
gpasm-1.4.0 #1107 (May  9 2015) build/default   4-28-2017  14:58:28         PAGE  3


LOC    OBJECT CODE    LINE  SOURCE TEXT
  VALUE

  0000                00097         extern  _RCSTA
  0000                00098         extern  _TXREG
  0000                00099         extern  _RCREG
  0000                00100         extern  _PWM1CON
  0000                00101         extern  _ECCPAS
  0000                00102         extern  _ADRESH
  0000                00103         extern  _ADCON0
  0000                00104         extern  _OPTION_REG
  0000                00105         extern  _TRISA
  0000                00106         extern  _TRISB
  0000                00107         extern  _TRISC
  0000                00108         extern  _PIE1
  0000                00109         extern  _PIE2
  0000                00110         extern  _PCON
  0000                00111         extern  _OSCCON
  0000                00112         extern  _OSCTUNE
  0000                00113         extern  _PR2
  0000                00114         extern  _MSK
  0000                00115         extern  _SSPADD
  0000                00116         extern  _SSPMSK
  0000                00117         extern  _SSPSTAT
  0000                00118         extern  _WPU
  0000                00119         extern  _WPUA
  0000                00120         extern  _IOC
  0000                00121         extern  _IOCA
  0000                00122         extern  _WDTCON
  0000                00123         extern  _TXSTA
  0000                00124         extern  _SPBRG
  0000                00125         extern  _SPBRGH
  0000                00126         extern  _BAUDCTL
  0000                00127         extern  _ADRESL
  0000                00128         extern  _ADCON1
  0000                00129         extern  _EEDAT
  0000                00130         extern  _EEDATA
  0000                00131         extern  _EEADR
  0000                00132         extern  _EEDATH
  0000                00133         extern  _EEADRH
  0000                00134         extern  _WPUB
  0000                00135         extern  _IOCB
  0000                00136         extern  _VRCON
  0000                00137         extern  _CM1CON0
  0000                00138         extern  _CM2CON0
  0000                00139         extern  _CM2CON1
  0000                00140         extern  _ANSEL
  0000                00141         extern  _ANSELH
  0000                00142         extern  _EECON1
  0000                00143         extern  _EECON2
  0000                00144         extern  _PSTRCON
  0000                00145         extern  _SRCON
  0000                00146         extern  ___sdcc_saved_fsr
  0000                00147         extern  __sdcc_gsinit_startup
                      00148 ;--------------------------------------------------------
                      00149 ; global declarations
gpasm-1.4.0 #1107 (May  9 2015) build/default   4-28-2017  14:58:28         PAGE  4


LOC    OBJECT CODE    LINE  SOURCE TEXT
  VALUE

                      00150 ;--------------------------------------------------------
  0000                00151         global  _circBufPush
  0000                00152         global  _receive_intr
  0000                00153         global  _main
  0000                00154         global  _bitfield
  0000                00155         global  _w
  0000                00156         global  _t
  0000                00157         global  _w1
  0000                00158         global  _t1
  0000                00159         global  _RecAddress
  0000                00160         global  _SetAddress
  0000                00161         global  _buf
  0000                00162         global  _buf_head
  0000                00163         global  _buf_tail
  0000                00164         global  _int_error_cnt
  0000                00165         global  _stri
  0000                00166         global  _strV0
  0000                00167         global  _strV1
  0000                00168         global  _strVF
  0000                00169         global  _strw
  0000                00170         global  _strt
  0000                00171         global  _strw1
  0000                00172         global  _strt1
  0000                00173         global  _tab
  0000                00174         global  _space
  0000                00175         global  _enter
  0000                00176         global  _sync
  0000                00177         global  _int_err
  0000                00178         global  _buf_err
  0000                00179         global  _pir1
  0000                00180         global  _pir2
  0000                00181         global  _pie1
  0000                00182         global  _pie2
  0000                00183         global  _light
  0000                00184         global  _tim0_owf
                      00185 
  0000                00186         global PSAVE
  0000                00187         global SSAVE
  0000                00188         global WSAVE
  0000                00189         global STK12
  0000                00190         global STK11
  0000                00191         global STK10
  0000                00192         global STK09
  0000                00193         global STK08
  0000                00194         global STK07
  0000                00195         global STK06
  0000                00196         global STK05
  0000                00197         global STK04
  0000                00198         global STK03
  0000                00199         global STK02
  0000                00200         global STK01
  0000                00201         global STK00
                      00202 
gpasm-1.4.0 #1107 (May  9 2015) build/default   4-28-2017  14:58:28         PAGE  5


LOC    OBJECT CODE    LINE  SOURCE TEXT
  VALUE

                      00203 sharebank udata_ovr 0x0070
0070                  00204 PSAVE   res 1
0071                  00205 SSAVE   res 1
0072                  00206 WSAVE   res 1
0073                  00207 STK12   res 1
0074                  00208 STK11   res 1
0075                  00209 STK10   res 1
0076                  00210 STK09   res 1
0077                  00211 STK08   res 1
0078                  00212 STK07   res 1
0079                  00213 STK06   res 1
007A                  00214 STK05   res 1
007B                  00215 STK04   res 1
007C                  00216 STK03   res 1
007D                  00217 STK02   res 1
007E                  00218 STK01   res 1
007F                  00219 STK00   res 1
                      00220 
                      00221 ;--------------------------------------------------------
                      00222 ; global definitions
                      00223 ;--------------------------------------------------------
                      00224 UD_main_0       udata
0000                  00225 _bitfield       res     1
                      00226 
                      00227 UD_main_1       udata
0000                  00228 _RecAddress     res     20
                      00229 
                      00230 UD_main_2       udata
0000                  00231 _SetAddress     res     12
                      00232 
                      00233 UD_main_3       udata
0000                  00234 _buf    res     16
                      00235 
                      00236 ;--------------------------------------------------------
                      00237 ; absolute symbol definitions
                      00238 ;--------------------------------------------------------
                      00239 ;--------------------------------------------------------
                      00240 ; compiler-defined variables
                      00241 ;--------------------------------------------------------
                      00242 UDL_main_0      udata
0000                  00243 r0x104A res     1
0001                  00244 r0x104B res     1
0002                  00245 r0x1042 res     1
0003                  00246 r0x1043 res     1
0004                  00247 r0x1044 res     1
0005                  00248 r0x1046 res     1
0006                  00249 r0x1045 res     1
0007                  00250 r0x1047 res     1
0008                  00251 r0x1048 res     1
0009                  00252 r0x103D res     1
000A                  00253 r0x103E res     1
000B                  00254 r0x1040 res     1
000C                  00255 r0x103F res     1
gpasm-1.4.0 #1107 (May  9 2015) build/default   4-28-2017  14:58:28         PAGE  6


LOC    OBJECT CODE    LINE  SOURCE TEXT
  VALUE

000D                  00256 r0x1041 res     1
                      00257 ;--------------------------------------------------------
                      00258 ; initialized data
                      00259 ;--------------------------------------------------------
                      00260 
                      00261 ID_main_0       idata
0000                  00262 _w
0000   00 00          00263         db      0x00, 0x00
                      00264 
                      00265 
                      00266 ID_main_1       idata
0000                  00267 _t
0000   00 00          00268         db      0x00, 0x00
                      00269 
                      00270 
                      00271 ID_main_2       idata
0000                  00272 _w1
0000   00 00          00273         db      0x00, 0x00
                      00274 
                      00275 
                      00276 ID_main_3       idata
0000                  00277 _t1
0000   00 00          00278         db      0x00, 0x00
                      00279 
                      00280 
                      00281 ID_main_4       idata
0000                  00282 _buf_head
0000   00             00283         db      0x00
                      00284 
                      00285 
                      00286 ID_main_5       idata
0000                  00287 _buf_tail
0000   00             00288         db      0x00
                      00289 
                      00290 
                      00291 ID_main_6       idata
0000                  00292 _int_error_cnt
0000   00             00293         db      0x00
                      00294 
                      00295 
                      00296 ID_main_7       code
0000                  00297 _stri
0000   3469           00298         retlw 0x69
0001   3420           00299         retlw 0x20
0002   343D           00300         retlw 0x3d
0003   3420           00301         retlw 0x20
0004   3400           00302         retlw 0x00
                      00303 
                      00304 
                      00305 ID_main_8       code
0000                  00306 _strV0
0000   3430           00307         retlw 0x30
0001   3420           00308         retlw 0x20
gpasm-1.4.0 #1107 (May  9 2015) build/default   4-28-2017  14:58:28         PAGE  7


LOC    OBJECT CODE    LINE  SOURCE TEXT
  VALUE

0002   340A           00309         retlw 0x0a
0003   3400           00310         retlw 0x00
                      00311 
                      00312 
                      00313 ID_main_9       code
0000                  00314 _strV1
0000   3431           00315         retlw 0x31
0001   3420           00316         retlw 0x20
0002   340A           00317         retlw 0x0a
0003   3400           00318         retlw 0x00
                      00319 
                      00320 
                      00321 ID_main_10      code
0000                  00322 _strVF
0000   3446           00323         retlw 0x46
0001   3420           00324         retlw 0x20
0002   340A           00325         retlw 0x0a
0003   3400           00326         retlw 0x00
                      00327 
                      00328 
                      00329 ID_main_11      code
0000                  00330 _strw
0000   3477           00331         retlw 0x77
0001   343A           00332         retlw 0x3a
0002   3420           00333         retlw 0x20
0003   3400           00334         retlw 0x00
                      00335 
                      00336 
                      00337 ID_main_12      code
0000                  00338 _strt
0000   3474           00339         retlw 0x74
0001   343A           00340         retlw 0x3a
0002   3420           00341         retlw 0x20
0003   3400           00342         retlw 0x00
                      00343 
                      00344 
                      00345 ID_main_13      code
0000                  00346 _strw1
0000   3477           00347         retlw 0x77
0001   3431           00348         retlw 0x31
0002   343A           00349         retlw 0x3a
0003   3420           00350         retlw 0x20
0004   3400           00351         retlw 0x00
                      00352 
                      00353 
                      00354 ID_main_14      code
0000                  00355 _strt1
0000   3474           00356         retlw 0x74
0001   3431           00357         retlw 0x31
0002   343A           00358         retlw 0x3a
0003   3420           00359         retlw 0x20
0004   3400           00360         retlw 0x00
                      00361 
gpasm-1.4.0 #1107 (May  9 2015) build/default   4-28-2017  14:58:28         PAGE  8


LOC    OBJECT CODE    LINE  SOURCE TEXT
  VALUE

                      00362 
                      00363 ID_main_15      code
0000                  00364 _tab
0000   3409           00365         retlw 0x09
0001   3400           00366         retlw 0x00
                      00367 
                      00368 
                      00369 ID_main_16      code
0000                  00370 _space
0000   3420           00371         retlw 0x20
0001   3400           00372         retlw 0x00
                      00373 
                      00374 
                      00375 ID_main_17      code
0000                  00376 _enter
0000   340A           00377         retlw 0x0a
0001   3400           00378         retlw 0x00
                      00379 
                      00380 
                      00381 ID_main_18      code
0000                  00382 _sync
0000   3453           00383         retlw 0x53
0001   3459           00384         retlw 0x59
0002   344E           00385         retlw 0x4e
0003   3443           00386         retlw 0x43
0004   340A           00387         retlw 0x0a
0005   3400           00388         retlw 0x00
                      00389 
                      00390 
                      00391 ID_main_19      code
0000                  00392 _int_err
0000   3449           00393         retlw 0x49
0001   344E           00394         retlw 0x4e
0002   3454           00395         retlw 0x54
0003   3420           00396         retlw 0x20
0004   3445           00397         retlw 0x45
0005   3452           00398         retlw 0x52
0006   3452           00399         retlw 0x52
0007   340A           00400         retlw 0x0a
0008   3400           00401         retlw 0x00
                      00402 
                      00403 
                      00404 ID_main_20      code
0000                  00405 _buf_err
0000   3442           00406         retlw 0x42
0001   3455           00407         retlw 0x55
0002   3446           00408         retlw 0x46
0003   3446           00409         retlw 0x46
0004   3445           00410         retlw 0x45
0005   3452           00411         retlw 0x52
0006   3420           00412         retlw 0x20
0007   344F           00413         retlw 0x4f
0008   3457           00414         retlw 0x57
gpasm-1.4.0 #1107 (May  9 2015) build/default   4-28-2017  14:58:28         PAGE  9


LOC    OBJECT CODE    LINE  SOURCE TEXT
  VALUE

0009   3445           00415         retlw 0x45
000A   3452           00416         retlw 0x52
000B   3446           00417         retlw 0x46
000C   344C           00418         retlw 0x4c
000D   344F           00419         retlw 0x4f
000E   3457           00420         retlw 0x57
000F   340A           00421         retlw 0x0a
0010   3400           00422         retlw 0x00
                      00423 
                      00424 
                      00425 ID_main_21      code
0000                  00426 _pir1
0000   3450           00427         retlw 0x50
0001   3449           00428         retlw 0x49
0002   3452           00429         retlw 0x52
0003   3431           00430         retlw 0x31
0004   343A           00431         retlw 0x3a
0005   3420           00432         retlw 0x20
0006   3400           00433         retlw 0x00
                      00434 
                      00435 
                      00436 ID_main_22      code
0000                  00437 _pir2
0000   3450           00438         retlw 0x50
0001   3449           00439         retlw 0x49
0002   3452           00440         retlw 0x52
0003   3432           00441         retlw 0x32
0004   343A           00442         retlw 0x3a
0005   3420           00443         retlw 0x20
0006   3400           00444         retlw 0x00
                      00445 
                      00446 
                      00447 ID_main_23      code
0000                  00448 _pie1
0000   3450           00449         retlw 0x50
0001   3449           00450         retlw 0x49
0002   3445           00451         retlw 0x45
0003   3431           00452         retlw 0x31
0004   343A           00453         retlw 0x3a
0005   3420           00454         retlw 0x20
0006   3400           00455         retlw 0x00
                      00456 
                      00457 
                      00458 ID_main_24      code
0000                  00459 _pie2
0000   3450           00460         retlw 0x50
0001   3449           00461         retlw 0x49
0002   3445           00462         retlw 0x45
0003   3432           00463         retlw 0x32
0004   343A           00464         retlw 0x3a
0005   3420           00465         retlw 0x20
0006   3400           00466         retlw 0x00
                      00467 
gpasm-1.4.0 #1107 (May  9 2015) build/default   4-28-2017  14:58:28         PAGE 10


LOC    OBJECT CODE    LINE  SOURCE TEXT
  VALUE

                      00468 
                      00469 ID_main_25      code
0000                  00470 _light
0000   344C           00471         retlw 0x4c
0001   3449           00472         retlw 0x49
0002   3467           00473         retlw 0x67
0003   3468           00474         retlw 0x68
0004   3474           00475         retlw 0x74
0005   340A           00476         retlw 0x0a
0006   3400           00477         retlw 0x00
                      00478 
                      00479 
                      00480 ID_main_26      code
0000                  00481 _tim0_owf
0000   3454           00482         retlw 0x54
0001   3449           00483         retlw 0x49
0002   344D           00484         retlw 0x4d
0003   3430           00485         retlw 0x30
0004   3420           00486         retlw 0x20
0005   344F           00487         retlw 0x4f
0006   3457           00488         retlw 0x57
0007   3446           00489         retlw 0x46
0008   340A           00490         retlw 0x0a
0009   3400           00491         retlw 0x00
                      00492 
                      00493 ;--------------------------------------------------------
                      00494 ; overlayable items in internal ram 
                      00495 ;--------------------------------------------------------
                      00496 ;       udata_ovr
                      00497 ;--------------------------------------------------------
                      00498 ; reset vector 
                      00499 ;--------------------------------------------------------
                      00500 STARTUP code 0x0000
0000   0000           00501         nop
0001   ????           00502         pagesel __sdcc_gsinit_startup
0002   2???           00503         goto    __sdcc_gsinit_startup
                      00504 ;--------------------------------------------------------
                      00505 ; interrupt and initialization code
                      00506 ;--------------------------------------------------------
                      00507 c_interrupt     code    0x0004
0004                  00508 __sdcc_interrupt:
                      00509 ;***
                      00510 ;  pBlock Stats: dbName = I
                      00511 ;***
                      00512 ;2 compiler assigned registers:
                      00513 ;   r0x104A
                      00514 ;   r0x104B
                      00515 ;; Starting pCode block
0004                  00516 _receive_intr:
                      00517 ; 0 exit points
                      00518 ;       .line   115; "main.c"   void receive_intr() __interrupt 0 {
0004   00??           00519         MOVWF   WSAVE
0005   0E03           00520         SWAPF   STATUS,W
gpasm-1.4.0 #1107 (May  9 2015) build/default   4-28-2017  14:58:28         PAGE 11


LOC    OBJECT CODE    LINE  SOURCE TEXT
  VALUE

0006   0183           00521         CLRF    STATUS
0007   00??           00522         MOVWF   SSAVE
0008   080A           00523         MOVF    PCLATH,W
0009   018A           00524         CLRF    PCLATH
000A   00??           00525         MOVWF   PSAVE
000B   0804           00526         MOVF    FSR,W
000C   ???? ????      00527         BANKSEL ___sdcc_saved_fsr
000E   00??           00528         MOVWF   ___sdcc_saved_fsr
                      00529 ;       .line   117; "main.c"   if(T0IF){
000F   ???? ????      00530         BANKSEL _INTCONbits
0011   1D??           00531         BTFSS   _INTCONbits,2
0012   2???           00532         GOTO    _00106_DS_
                      00533 ;       .line   118; "main.c"   T0IE = 0;
0013   12??           00534         BCF     _INTCONbits,5
                      00535 ;       .line   119; "main.c"   T0IF = 0;
0014   11??           00536         BCF     _INTCONbits,2
                      00537 ;       .line   120; "main.c"   TMR0 = 0;       // Enable timer
0015   01??           00538         CLRF    _TMR0
                      00539 ;       .line   121; "main.c"   OUT_PIN = 0;
0016   13??           00540         BCF     _PORTBbits,6
0017                  00541 _00106_DS_:
                      00542 ;       .line   123; "main.c"   if(TXIF){
0017   ???? ????      00543         BANKSEL _PIR1bits
0019   1E??           00544         BTFSS   _PIR1bits,4
001A   2???           00545         GOTO    _00113_DS_
                      00546 ;       .line   125; "main.c"   if (buf_head == buf_tail){
001B   ???? ????      00547         BANKSEL _buf_tail
001D   08??           00548         MOVF    _buf_tail,W
001E   ???? ????      00549         BANKSEL _buf_head
0020   06??           00550         XORWF   _buf_head,W
0021   1D03           00551         BTFSS   STATUS,2
0022   2???           00552         GOTO    _00110_DS_
                      00553 ;       .line   126; "main.c"   TXIE = 0;
0023   ???? ????      00554         BANKSEL _PIE1bits
0025   12??           00555         BCF     _PIE1bits,4
0026   2???           00556         GOTO    _00113_DS_
0027                  00557 _00110_DS_:
                      00558 ;       .line   132; "main.c"   TXREG = buf[buf_tail];
0027   ???? ????      00559         BANKSEL _buf_tail
0029   08??           00560         MOVF    _buf_tail,W
002A   3E??           00561         ADDLW   (_buf + 0)
002B   ???? ????      00562         BANKSEL r0x104A
002D   00??           00563         MOVWF   r0x104A
002E   30??           00564         MOVLW   high (_buf + 0)
002F   1803           00565         BTFSC   STATUS,0
0030   3E01           00566         ADDLW   0x01
0031   00??           00567         MOVWF   r0x104B
0032   08??           00568         MOVF    r0x104A,W
0033   1283 1303      00569         BANKSEL FSR
0035   0084           00570         MOVWF   FSR
0036   1383           00571         BCF     STATUS,7
0037   ???? ????      00572         BANKSEL r0x104B
0039   18??           00573         BTFSC   r0x104B,0
gpasm-1.4.0 #1107 (May  9 2015) build/default   4-28-2017  14:58:28         PAGE 12


LOC    OBJECT CODE    LINE  SOURCE TEXT
  VALUE

003A   1783           00574         BSF     STATUS,7
003B   1283 1303      00575         BANKSEL INDF
003D   0800           00576         MOVF    INDF,W
003E   00??           00577         MOVWF   _TXREG
                      00578 ;       .line   133; "main.c"   buf[buf_tail] = 0;  // clear the data (optional)
003F   ???? ????      00579         BANKSEL r0x104A
0041   08??           00580         MOVF    r0x104A,W
0042   1283 1303      00581         BANKSEL FSR
0044   0084           00582         MOVWF   FSR
0045   1383           00583         BCF     STATUS,7
0046   ???? ????      00584         BANKSEL r0x104B
0048   18??           00585         BTFSC   r0x104B,0
0049   1783           00586         BSF     STATUS,7
004A   3000           00587         MOVLW   0x00
004B   1283 1303      00588         BANKSEL INDF
004D   0080           00589         MOVWF   INDF
                      00590 ;       .line   135; "main.c"   next = buf_tail + 1;
004E   ???? ????      00591         BANKSEL _buf_tail
0050   08??           00592         MOVF    _buf_tail,W
0051   ???? ????      00593         BANKSEL r0x104A
0053   00??           00594         MOVWF   r0x104A
0054   01??           00595         CLRF    r0x104B
0055   0A??           00596         INCF    r0x104A,F
0056   1903           00597         BTFSC   STATUS,2
0057   0A??           00598         INCF    r0x104B,F
                      00599 ;;signed compare: left < lit(0x10=16), size=2, mask=ffff
                      00600 ;       .line   136; "main.c"   if(next >= BUF_SIZE)
0058   08??           00601         MOVF    r0x104B,W
0059   3E80           00602         ADDLW   0x80
005A   3E80           00603         ADDLW   0x80
005B   1D03           00604         BTFSS   STATUS,2
005C   2???           00605         GOTO    _00139_DS_
005D   3010           00606         MOVLW   0x10
005E   02??           00607         SUBWF   r0x104A,W
005F                  00608 _00139_DS_:
005F   1C03           00609         BTFSS   STATUS,0
0060   2???           00610         GOTO    _00108_DS_
                      00611 ;;genSkipc:3257: created from rifx:0x7fff7f40e400
                      00612 ;       .line   137; "main.c"   next = 0;
0061   ???? ????      00613         BANKSEL r0x104A
0063   01??           00614         CLRF    r0x104A
0064   01??           00615         CLRF    r0x104B
0065                  00616 _00108_DS_:
                      00617 ;       .line   139; "main.c"   buf_tail = next;
0065   ???? ????      00618         BANKSEL r0x104A
0067   08??           00619         MOVF    r0x104A,W
0068   ???? ????      00620         BANKSEL _buf_tail
006A   00??           00621         MOVWF   _buf_tail
006B                  00622 _00113_DS_:
                      00623 ;       .line   143; "main.c"   if(CCP1IF){
006B   ???? ????      00624         BANKSEL _PIR1bits
006D   1D??           00625         BTFSS   _PIR1bits,2
006E   2???           00626         GOTO    _00118_DS_
gpasm-1.4.0 #1107 (May  9 2015) build/default   4-28-2017  14:58:28         PAGE 13


LOC    OBJECT CODE    LINE  SOURCE TEXT
  VALUE

                      00627 ;       .line   144; "main.c"   CCP1IE = FALSE;
006F   ???? ????      00628         BANKSEL _PIE1bits
0071   11??           00629         BCF     _PIE1bits,2
                      00630 ;       .line   145; "main.c"   if(CCP1M0){                     // if ECCP mode is Rising edge CCP1M0
0072   ???? ????      00631         BANKSEL _CCP1CONbits
0074   1C??           00632         BTFSS   _CCP1CONbits,0
0075   2???           00633         GOTO    _00115_DS_
                      00634 ;       .line   146; "main.c"   CCP1M0 = FALING;                 // set falling edge
0076   10??           00635         BCF     _CCP1CONbits,0
                      00636 ;       .line   147; "main.c"   TMR1H = 0;
0077   01??           00637         CLRF    _TMR1H
                      00638 ;       .line   148; "main.c"   TMR1L = 0;
0078   01??           00639         CLRF    _TMR1L
                      00640 ;       .line   149; "main.c"   t = 0x0000 | CCPR1H;        //ECCP result higher 8 bits
0079   08??           00641         MOVF    _CCPR1H,W
007A   ???? ????      00642         BANKSEL r0x104A
007C   00??           00643         MOVWF   r0x104A
007D   ???? ????      00644         BANKSEL _t
007F   00??           00645         MOVWF   _t
0080   01??           00646         CLRF    (_t + 1)
                      00647 ;       .line   150; "main.c"   t = t << 8;
0081   08??           00648         MOVF    _t,W
0082   00??           00649         MOVWF   (_t + 1)
0083   01??           00650         CLRF    _t
                      00651 ;       .line   151; "main.c"   t = t | CCPR1L;             //ECCP combined 16 bit number formation
0084   ???? ????      00652         BANKSEL _CCPR1L
0086   08??           00653         MOVF    _CCPR1L,W
0087   ???? ????      00654         BANKSEL r0x104A
0089   00??           00655         MOVWF   r0x104A
008A   01??           00656         CLRF    r0x104B
008B   08??           00657         MOVF    r0x104A,W
008C   ???? ????      00658         BANKSEL _t
008E   04??           00659         IORWF   _t,F
008F   3000           00660         MOVLW   0x00
0090   04??           00661         IORWF   (_t + 1),F
                      00662 ;       .line   152; "main.c"   bitfield.Capture = TRUE;
0091   ???? ????      00663         BANKSEL _bitfield
0093   14??           00664         BSF     _bitfield,0
0094   2???           00665         GOTO    _00116_DS_
0095                  00666 _00115_DS_:
                      00667 ;       .line   155; "main.c"   CCP1M0 = RISING;
0095   ???? ????      00668         BANKSEL _CCP1CONbits
0097   14??           00669         BSF     _CCP1CONbits,0
                      00670 ;       .line   156; "main.c"   w = 0x0000 | CCPR1H;        //ECCP result higher 8 bits
0098   08??           00671         MOVF    _CCPR1H,W
0099   ???? ????      00672         BANKSEL r0x104A
009B   00??           00673         MOVWF   r0x104A
009C   ???? ????      00674         BANKSEL _w
009E   00??           00675         MOVWF   _w
009F   01??           00676         CLRF    (_w + 1)
                      00677 ;       .line   157; "main.c"   w = w << 8;
00A0   08??           00678         MOVF    _w,W
00A1   00??           00679         MOVWF   (_w + 1)
gpasm-1.4.0 #1107 (May  9 2015) build/default   4-28-2017  14:58:28         PAGE 14


LOC    OBJECT CODE    LINE  SOURCE TEXT
  VALUE

00A2   01??           00680         CLRF    _w
                      00681 ;       .line   158; "main.c"   w = w | CCPR1L;             //ECCP combined 16 bit number formation
00A3   ???? ????      00682         BANKSEL _CCPR1L
00A5   08??           00683         MOVF    _CCPR1L,W
00A6   ???? ????      00684         BANKSEL r0x104A
00A8   00??           00685         MOVWF   r0x104A
00A9   01??           00686         CLRF    r0x104B
00AA   08??           00687         MOVF    r0x104A,W
00AB   ???? ????      00688         BANKSEL _w
00AD   04??           00689         IORWF   _w,F
00AE   3000           00690         MOVLW   0x00
00AF   04??           00691         IORWF   (_w + 1),F
00B0                  00692 _00116_DS_:
                      00693 ;       .line   160; "main.c"   CCP1IE = 1;
00B0   ???? ????      00694         BANKSEL _PIE1bits
00B2   15??           00695         BSF     _PIE1bits,2
                      00696 ;       .line   161; "main.c"   CCP1IF = 0;                     //Clear interrupt flag
00B3   ???? ????      00697         BANKSEL _PIR1bits
00B5   11??           00698         BCF     _PIR1bits,2
00B6                  00699 _00118_DS_:
                      00700 ;       .line   163; "main.c"   int_error_cnt++;
00B6   ???? ????      00701         BANKSEL _int_error_cnt
00B8   0A??           00702         INCF    _int_error_cnt,F
00B9   ???? ????      00703         BANKSEL ___sdcc_saved_fsr
00BB   08??           00704         MOVF    ___sdcc_saved_fsr,W
00BC   1283 1303      00705         BANKSEL FSR
00BE   0084           00706         MOVWF   FSR
00BF   08??           00707         MOVF    PSAVE,W
00C0   008A           00708         MOVWF   PCLATH
00C1   0183           00709         CLRF    STATUS
00C2   0E??           00710         SWAPF   SSAVE,W
00C3   0083           00711         MOVWF   STATUS
00C4   0E??           00712         SWAPF   WSAVE,F
00C5   0E??           00713         SWAPF   WSAVE,W
00C6                  00714 END_OF_INTERRUPT:
00C6   0009           00715         RETFIE  
                      00716 
                      00717 ;--------------------------------------------------------
                      00718 ; code
                      00719 ;--------------------------------------------------------
                      00720 code_main       code
                      00721 ;***
                      00722 ;  pBlock Stats: dbName = M
                      00723 ;***
                      00724 ;has an exit
                      00725 ;functions called:
                      00726 ;   _init
                      00727 ;   _delay_ms
                      00728 ;   _ADC_read
                      00729 ;   _SP_send_buf
                      00730 ;   _dec_to_ascii_buf
                      00731 ;   _SP_send_buf
                      00732 ;   _dec_to_ascii_buf
gpasm-1.4.0 #1107 (May  9 2015) build/default   4-28-2017  14:58:28         PAGE 15


LOC    OBJECT CODE    LINE  SOURCE TEXT
  VALUE

                      00733 ;   _SP_send_buf
                      00734 ;   _SP_send_buf
                      00735 ;   _dec_to_ascii_buf
                      00736 ;   _SP_send_buf
                      00737 ;   _dec_to_ascii_buf
                      00738 ;   _SP_send_buf
                      00739 ;   _SP_send_buf
                      00740 ;   _SP_send_buf
                      00741 ;   _init
                      00742 ;   _delay_ms
                      00743 ;   _ADC_read
                      00744 ;   _SP_send_buf
                      00745 ;   _dec_to_ascii_buf
                      00746 ;   _SP_send_buf
                      00747 ;   _dec_to_ascii_buf
                      00748 ;   _SP_send_buf
                      00749 ;   _SP_send_buf
                      00750 ;   _dec_to_ascii_buf
                      00751 ;   _SP_send_buf
                      00752 ;   _dec_to_ascii_buf
                      00753 ;   _SP_send_buf
                      00754 ;   _SP_send_buf
                      00755 ;   _SP_send_buf
                      00756 ;11 compiler assigned registers:
                      00757 ;   STK02
                      00758 ;   STK01
                      00759 ;   STK00
                      00760 ;   r0x1042
                      00761 ;   r0x1043
                      00762 ;   r0x1044
                      00763 ;   r0x1045
                      00764 ;   r0x1046
                      00765 ;   r0x1047
                      00766 ;   r0x1048
                      00767 ;   r0x1049
                      00768 ;; Starting pCode block
                      00769 S_main__main    code
0000                  00770 _main:
                      00771 ; 2 exit points
                      00772 ;       .line   172; "main.c"   init();
0000   ????           00773         PAGESEL _init
0001   2???           00774         CALL    _init
0002   ????           00775         PAGESEL $
                      00776 ;       .line   173; "main.c"   bitfield.Hint = FALSE;
0003   ???? ????      00777         BANKSEL _bitfield
0005   11??           00778         BCF     _bitfield,2
                      00779 ;       .line   174; "main.c"   bitfield.Capture = FALSE;
0006   10??           00780         BCF     _bitfield,0
                      00781 ;       .line   175; "main.c"   delay_ms(10);
0007   300A           00782         MOVLW   0x0a
0008   00??           00783         MOVWF   STK02
0009   3000           00784         MOVLW   0x00
000A   00??           00785         MOVWF   STK01
gpasm-1.4.0 #1107 (May  9 2015) build/default   4-28-2017  14:58:28         PAGE 16


LOC    OBJECT CODE    LINE  SOURCE TEXT
  VALUE

000B   3000           00786         MOVLW   0x00
000C   00??           00787         MOVWF   STK00
000D   3000           00788         MOVLW   0x00
000E   ????           00789         PAGESEL _delay_ms
000F   2???           00790         CALL    _delay_ms
0010   ????           00791         PAGESEL $
                      00792 ;       .line   176; "main.c"   for(i = 0; i <= 11; i++){
0011   ???? ????      00793         BANKSEL r0x1042
0013   01??           00794         CLRF    r0x1042
                      00795 ;;104   MOVF    r0x1042,W
0014                  00796 _00189_DS_:
                      00797 ;       .line   178; "main.c"   result = ADC_read(i); // select chanel AN0 = 0
0014   ???? ????      00798         BANKSEL r0x1044
0016   01??           00799         CLRF    r0x1044
                      00800 ;;103   MOVF    r0x1043,W
0017   08??           00801         MOVF    r0x1042,W
0018   00??           00802         MOVWF   r0x1043
0019   00??           00803         MOVWF   STK00
001A   3000           00804         MOVLW   0x00
001B   ????           00805         PAGESEL _ADC_read
001C   2???           00806         CALL    _ADC_read
001D   ????           00807         PAGESEL $
001E   ???? ????      00808         BANKSEL r0x1044
0020   00??           00809         MOVWF   r0x1044
0021   08??           00810         MOVF    STK00,W
0022   00??           00811         MOVWF   r0x1043
                      00812 ;       .line   179; "main.c"   SP_send_buf(stri);
0023   30??           00813         MOVLW   high (_stri + 0)
0024   00??           00814         MOVWF   r0x1045
0025   30??           00815         MOVLW   (_stri + 0)
0026   00??           00816         MOVWF   r0x1046
0027   3080           00817         MOVLW   0x80
0028   00??           00818         MOVWF   r0x1047
0029   08??           00819         MOVF    r0x1046,W
002A   00??           00820         MOVWF   STK01
002B   08??           00821         MOVF    r0x1045,W
002C   00??           00822         MOVWF   STK00
002D   08??           00823         MOVF    r0x1047,W
002E   ????           00824         PAGESEL _SP_send_buf
002F   2???           00825         CALL    _SP_send_buf
0030   ????           00826         PAGESEL $
                      00827 ;;102   MOVF    r0x1042,W
                      00828 ;       .line   180; "main.c"   dec_to_ascii_buf(i);
0031   ???? ????      00829         BANKSEL r0x1045
0033   01??           00830         CLRF    r0x1045
                      00831 ;;101   MOVF    r0x1046,W
0034   08??           00832         MOVF    r0x1042,W
0035   00??           00833         MOVWF   r0x1046
0036   00??           00834         MOVWF   STK00
0037   3000           00835         MOVLW   0x00
0038   ????           00836         PAGESEL _dec_to_ascii_buf
0039   2???           00837         CALL    _dec_to_ascii_buf
003A   ????           00838         PAGESEL $
gpasm-1.4.0 #1107 (May  9 2015) build/default   4-28-2017  14:58:28         PAGE 17


LOC    OBJECT CODE    LINE  SOURCE TEXT
  VALUE

                      00839 ;       .line   181; "main.c"   SP_send_buf(space);
003B   30??           00840         MOVLW   high (_space + 0)
003C   ???? ????      00841         BANKSEL r0x1045
003E   00??           00842         MOVWF   r0x1045
003F   30??           00843         MOVLW   (_space + 0)
0040   00??           00844         MOVWF   r0x1046
0041   3080           00845         MOVLW   0x80
0042   00??           00846         MOVWF   r0x1047
0043   08??           00847         MOVF    r0x1046,W
0044   00??           00848         MOVWF   STK01
0045   08??           00849         MOVF    r0x1045,W
0046   00??           00850         MOVWF   STK00
0047   08??           00851         MOVF    r0x1047,W
0048   ????           00852         PAGESEL _SP_send_buf
0049   2???           00853         CALL    _SP_send_buf
004A   ????           00854         PAGESEL $
                      00855 ;       .line   182; "main.c"   dec_to_ascii_buf(result);
004B   ???? ????      00856         BANKSEL r0x1043
004D   08??           00857         MOVF    r0x1043,W
004E   00??           00858         MOVWF   STK00
004F   08??           00859         MOVF    r0x1044,W
0050   ????           00860         PAGESEL _dec_to_ascii_buf
0051   2???           00861         CALL    _dec_to_ascii_buf
0052   ????           00862         PAGESEL $
                      00863 ;       .line   183; "main.c"   SP_send_buf(enter);
0053   30??           00864         MOVLW   high (_enter + 0)
0054   ???? ????      00865         BANKSEL r0x1045
0056   00??           00866         MOVWF   r0x1045
0057   30??           00867         MOVLW   (_enter + 0)
0058   00??           00868         MOVWF   r0x1046
0059   3080           00869         MOVLW   0x80
005A   00??           00870         MOVWF   r0x1047
005B   08??           00871         MOVF    r0x1046,W
005C   00??           00872         MOVWF   STK01
005D   08??           00873         MOVF    r0x1045,W
005E   00??           00874         MOVWF   STK00
005F   08??           00875         MOVF    r0x1047,W
0060   ????           00876         PAGESEL _SP_send_buf
0061   2???           00877         CALL    _SP_send_buf
0062   ????           00878         PAGESEL $
                      00879 ;;swapping arguments (AOP_TYPEs 1/2)
                      00880 ;;unsigned compare: left >= lit(0x1F5=501), size=2
                      00881 ;       .line   185; "main.c"   if(result > 500)
0063   3001           00882         MOVLW   0x01
0064   ???? ????      00883         BANKSEL r0x1044
0066   02??           00884         SUBWF   r0x1044,W
0067   1D03           00885         BTFSS   STATUS,2
0068   2???           00886         GOTO    _00300_DS_
0069   30F5           00887         MOVLW   0xf5
006A   02??           00888         SUBWF   r0x1043,W
006B                  00889 _00300_DS_:
006B   1C03           00890         BTFSS   STATUS,0
006C   2???           00891         GOTO    _00148_DS_
gpasm-1.4.0 #1107 (May  9 2015) build/default   4-28-2017  14:58:28         PAGE 18


LOC    OBJECT CODE    LINE  SOURCE TEXT
  VALUE

                      00892 ;;genSkipc:3257: created from rifx:0x7fff7f40e400
                      00893 ;       .line   186; "main.c"   SetAddress[i] = BIT1;
006D   ???? ????      00894         BANKSEL r0x1042
006F   08??           00895         MOVF    r0x1042,W
0070   3E??           00896         ADDLW   (_SetAddress + 0)
0071   00??           00897         MOVWF   r0x1046
0072   30??           00898         MOVLW   high (_SetAddress + 0)
0073   1803           00899         BTFSC   STATUS,0
0074   3E01           00900         ADDLW   0x01
0075   00??           00901         MOVWF   r0x1045
0076   08??           00902         MOVF    r0x1046,W
0077   1283 1303      00903         BANKSEL FSR
0079   0084           00904         MOVWF   FSR
007A   1383           00905         BCF     STATUS,7
007B   ???? ????      00906         BANKSEL r0x1045
007D   18??           00907         BTFSC   r0x1045,0
007E   1783           00908         BSF     STATUS,7
007F   3002           00909         MOVLW   0x02
0080   1283 1303      00910         BANKSEL INDF
0082   0080           00911         MOVWF   INDF
0083   2???           00912         GOTO    _00190_DS_
                      00913 ;;unsigned compare: left < lit(0x12C=300), size=2
0084                  00914 _00148_DS_:
                      00915 ;       .line   187; "main.c"   else if(result < 300)
0084   3001           00916         MOVLW   0x01
0085   ???? ????      00917         BANKSEL r0x1044
0087   02??           00918         SUBWF   r0x1044,W
0088   1D03           00919         BTFSS   STATUS,2
0089   2???           00920         GOTO    _00301_DS_
008A   302C           00921         MOVLW   0x2c
008B   02??           00922         SUBWF   r0x1043,W
008C                  00923 _00301_DS_:
008C   1803           00924         BTFSC   STATUS,0
008D   2???           00925         GOTO    _00145_DS_
                      00926 ;;genSkipc:3257: created from rifx:0x7fff7f40e400
                      00927 ;       .line   188; "main.c"   SetAddress[i] = BIT0;
008E   ???? ????      00928         BANKSEL r0x1042
0090   08??           00929         MOVF    r0x1042,W
0091   3E??           00930         ADDLW   (_SetAddress + 0)
0092   00??           00931         MOVWF   r0x1043
0093   30??           00932         MOVLW   high (_SetAddress + 0)
0094   1803           00933         BTFSC   STATUS,0
0095   3E01           00934         ADDLW   0x01
0096   00??           00935         MOVWF   r0x1044
0097   08??           00936         MOVF    r0x1043,W
0098   1283 1303      00937         BANKSEL FSR
009A   0084           00938         MOVWF   FSR
009B   1383           00939         BCF     STATUS,7
009C   ???? ????      00940         BANKSEL r0x1044
009E   18??           00941         BTFSC   r0x1044,0
009F   1783           00942         BSF     STATUS,7
00A0   3001           00943         MOVLW   0x01
00A1   1283 1303      00944         BANKSEL INDF
gpasm-1.4.0 #1107 (May  9 2015) build/default   4-28-2017  14:58:28         PAGE 19


LOC    OBJECT CODE    LINE  SOURCE TEXT
  VALUE

00A3   0080           00945         MOVWF   INDF
00A4   2???           00946         GOTO    _00190_DS_
00A5                  00947 _00145_DS_:
                      00948 ;       .line   190; "main.c"   SetAddress[i] = BITF;
00A5   ???? ????      00949         BANKSEL r0x1042
00A7   08??           00950         MOVF    r0x1042,W
00A8   3E??           00951         ADDLW   (_SetAddress + 0)
00A9   00??           00952         MOVWF   r0x1043
00AA   30??           00953         MOVLW   high (_SetAddress + 0)
00AB   1803           00954         BTFSC   STATUS,0
00AC   3E01           00955         ADDLW   0x01
00AD   00??           00956         MOVWF   r0x1044
00AE   08??           00957         MOVF    r0x1043,W
00AF   1283 1303      00958         BANKSEL FSR
00B1   0084           00959         MOVWF   FSR
00B2   1383           00960         BCF     STATUS,7
00B3   ???? ????      00961         BANKSEL r0x1044
00B5   18??           00962         BTFSC   r0x1044,0
00B6   1783           00963         BSF     STATUS,7
00B7   3003           00964         MOVLW   0x03
00B8   1283 1303      00965         BANKSEL INDF
00BA   0080           00966         MOVWF   INDF
00BB                  00967 _00190_DS_:
                      00968 ;       .line   176; "main.c"   for(i = 0; i <= 11; i++){
00BB   ???? ????      00969         BANKSEL r0x1042
00BD   0A??           00970         INCF    r0x1042,F
                      00971 ;;swapping arguments (AOP_TYPEs 1/2)
                      00972 ;;unsigned compare: left >= lit(0xC=12), size=1
00BE   300C           00973         MOVLW   0x0c
00BF   02??           00974         SUBWF   r0x1042,W
00C0   1C03           00975         BTFSS   STATUS,0
00C1   2???           00976         GOTO    _00189_DS_
                      00977 ;;genSkipc:3257: created from rifx:0x7fff7f40e400
                      00978 ;       .line   193; "main.c"   for(i = 0; i <= 11; i++){
00C2   01??           00979         CLRF    r0x1042
00C3                  00980 _00191_DS_:
                      00981 ;       .line   194; "main.c"   SP_send_buf(stri);
00C3   30??           00982         MOVLW   high (_stri + 0)
00C4   ???? ????      00983         BANKSEL r0x1044
00C6   00??           00984         MOVWF   r0x1044
00C7   30??           00985         MOVLW   (_stri + 0)
00C8   00??           00986         MOVWF   r0x1043
00C9   3080           00987         MOVLW   0x80
00CA   00??           00988         MOVWF   r0x1046
00CB   08??           00989         MOVF    r0x1043,W
00CC   00??           00990         MOVWF   STK01
00CD   08??           00991         MOVF    r0x1044,W
00CE   00??           00992         MOVWF   STK00
00CF   08??           00993         MOVF    r0x1046,W
00D0   ????           00994         PAGESEL _SP_send_buf
00D1   2???           00995         CALL    _SP_send_buf
00D2   ????           00996         PAGESEL $
                      00997 ;;100   MOVF    r0x1042,W
gpasm-1.4.0 #1107 (May  9 2015) build/default   4-28-2017  14:58:28         PAGE 20


LOC    OBJECT CODE    LINE  SOURCE TEXT
  VALUE

                      00998 ;       .line   195; "main.c"   dec_to_ascii_buf(i);
00D3   ???? ????      00999         BANKSEL r0x1044
00D5   01??           01000         CLRF    r0x1044
                      01001 ;;99    MOVF    r0x1043,W
00D6   08??           01002         MOVF    r0x1042,W
00D7   00??           01003         MOVWF   r0x1043
00D8   00??           01004         MOVWF   STK00
00D9   3000           01005         MOVLW   0x00
00DA   ????           01006         PAGESEL _dec_to_ascii_buf
00DB   2???           01007         CALL    _dec_to_ascii_buf
00DC   ????           01008         PAGESEL $
                      01009 ;       .line   196; "main.c"   SP_send_buf(space);
00DD   30??           01010         MOVLW   high (_space + 0)
00DE   ???? ????      01011         BANKSEL r0x1044
00E0   00??           01012         MOVWF   r0x1044
00E1   30??           01013         MOVLW   (_space + 0)
00E2   00??           01014         MOVWF   r0x1043
00E3   3080           01015         MOVLW   0x80
00E4   00??           01016         MOVWF   r0x1046
00E5   08??           01017         MOVF    r0x1043,W
00E6   00??           01018         MOVWF   STK01
00E7   08??           01019         MOVF    r0x1044,W
00E8   00??           01020         MOVWF   STK00
00E9   08??           01021         MOVF    r0x1046,W
00EA   ????           01022         PAGESEL _SP_send_buf
00EB   2???           01023         CALL    _SP_send_buf
00EC   ????           01024         PAGESEL $
                      01025 ;       .line   197; "main.c"   dec_to_ascii_buf(SetAddress[i]);
00ED   ???? ????      01026         BANKSEL r0x1042
00EF   08??           01027         MOVF    r0x1042,W
00F0   3E??           01028         ADDLW   (_SetAddress + 0)
00F1   00??           01029         MOVWF   r0x1043
00F2   30??           01030         MOVLW   high (_SetAddress + 0)
00F3   1803           01031         BTFSC   STATUS,0
00F4   3E01           01032         ADDLW   0x01
00F5   00??           01033         MOVWF   r0x1044
00F6   08??           01034         MOVF    r0x1043,W
00F7   1283 1303      01035         BANKSEL FSR
00F9   0084           01036         MOVWF   FSR
00FA   1383           01037         BCF     STATUS,7
00FB   ???? ????      01038         BANKSEL r0x1044
00FD   18??           01039         BTFSC   r0x1044,0
00FE   1783           01040         BSF     STATUS,7
00FF   1283 1303      01041         BANKSEL INDF
0101   0800           01042         MOVF    INDF,W
0102   ???? ????      01043         BANKSEL r0x1046
0104   00??           01044         MOVWF   r0x1046
0105   00??           01045         MOVWF   r0x1043
0106   01??           01046         CLRF    r0x1044
0107   08??           01047         MOVF    r0x1043,W
0108   00??           01048         MOVWF   STK00
0109   3000           01049         MOVLW   0x00
010A   ????           01050         PAGESEL _dec_to_ascii_buf
gpasm-1.4.0 #1107 (May  9 2015) build/default   4-28-2017  14:58:28         PAGE 21


LOC    OBJECT CODE    LINE  SOURCE TEXT
  VALUE

010B   2???           01051         CALL    _dec_to_ascii_buf
010C   ????           01052         PAGESEL $
                      01053 ;       .line   198; "main.c"   SP_send_buf(enter);
010D   30??           01054         MOVLW   high (_enter + 0)
010E   ???? ????      01055         BANKSEL r0x1044
0110   00??           01056         MOVWF   r0x1044
0111   30??           01057         MOVLW   (_enter + 0)
0112   00??           01058         MOVWF   r0x1043
0113   3080           01059         MOVLW   0x80
0114   00??           01060         MOVWF   r0x1046
0115   08??           01061         MOVF    r0x1043,W
0116   00??           01062         MOVWF   STK01
0117   08??           01063         MOVF    r0x1044,W
0118   00??           01064         MOVWF   STK00
0119   08??           01065         MOVF    r0x1046,W
011A   ????           01066         PAGESEL _SP_send_buf
011B   2???           01067         CALL    _SP_send_buf
011C   ????           01068         PAGESEL $
                      01069 ;       .line   193; "main.c"   for(i = 0; i <= 11; i++){
011D   ???? ????      01070         BANKSEL r0x1042
011F   0A??           01071         INCF    r0x1042,F
                      01072 ;;swapping arguments (AOP_TYPEs 1/2)
                      01073 ;;unsigned compare: left >= lit(0xC=12), size=1
0120   300C           01074         MOVLW   0x0c
0121   02??           01075         SUBWF   r0x1042,W
0122   1C03           01076         BTFSS   STATUS,0
0123   2???           01077         GOTO    _00191_DS_
                      01078 ;;genSkipc:3257: created from rifx:0x7fff7f40e400
0124                  01079 _00187_DS_:
                      01080 ;       .line   210; "main.c"   if (bitfield.Capture){
0124   ???? ????      01081         BANKSEL _bitfield
0126   1C??           01082         BTFSS   _bitfield,0
0127   2???           01083         GOTO    _00183_DS_
                      01084 ;       .line   211; "main.c"   bitfield.Capture = FALSE;
0128   10??           01085         BCF     _bitfield,0
                      01086 ;;swapping arguments (AOP_TYPEs 1/3)
                      01087 ;;unsigned compare: left >= lit(0x759=1881), size=2
                      01088 ;       .line   212; "main.c"   if (t > MIN_T && t < MAX_T && t1 > MIN_T && t1 < MAX_T){
0129   3007           01089         MOVLW   0x07
012A   ???? ????      01090         BANKSEL _t
012C   02??           01091         SUBWF   (_t + 1),W
012D   1D03           01092         BTFSS   STATUS,2
012E   2???           01093         GOTO    _00304_DS_
012F   3059           01094         MOVLW   0x59
0130   02??           01095         SUBWF   _t,W
0131                  01096 _00304_DS_:
0131   1C03           01097         BTFSS   STATUS,0
0132   2???           01098         GOTO    _00168_DS_
                      01099 ;;genSkipc:3257: created from rifx:0x7fff7f40e400
                      01100 ;;unsigned compare: left < lit(0x79E=1950), size=2
0133   3007           01101         MOVLW   0x07
0134   ???? ????      01102         BANKSEL _t
0136   02??           01103         SUBWF   (_t + 1),W
gpasm-1.4.0 #1107 (May  9 2015) build/default   4-28-2017  14:58:28         PAGE 22


LOC    OBJECT CODE    LINE  SOURCE TEXT
  VALUE

0137   1D03           01104         BTFSS   STATUS,2
0138   2???           01105         GOTO    _00305_DS_
0139   309E           01106         MOVLW   0x9e
013A   02??           01107         SUBWF   _t,W
013B                  01108 _00305_DS_:
013B   1803           01109         BTFSC   STATUS,0
013C   2???           01110         GOTO    _00168_DS_
                      01111 ;;genSkipc:3257: created from rifx:0x7fff7f40e400
                      01112 ;;swapping arguments (AOP_TYPEs 1/3)
                      01113 ;;unsigned compare: left >= lit(0x759=1881), size=2
013D   3007           01114         MOVLW   0x07
013E   ???? ????      01115         BANKSEL _t1
0140   02??           01116         SUBWF   (_t1 + 1),W
0141   1D03           01117         BTFSS   STATUS,2
0142   2???           01118         GOTO    _00306_DS_
0143   3059           01119         MOVLW   0x59
0144   02??           01120         SUBWF   _t1,W
0145                  01121 _00306_DS_:
0145   1C03           01122         BTFSS   STATUS,0
0146   2???           01123         GOTO    _00168_DS_
                      01124 ;;genSkipc:3257: created from rifx:0x7fff7f40e400
                      01125 ;;unsigned compare: left < lit(0x79E=1950), size=2
0147   3007           01126         MOVLW   0x07
0148   ???? ????      01127         BANKSEL _t1
014A   02??           01128         SUBWF   (_t1 + 1),W
014B   1D03           01129         BTFSS   STATUS,2
014C   2???           01130         GOTO    _00307_DS_
014D   309E           01131         MOVLW   0x9e
014E   02??           01132         SUBWF   _t1,W
014F                  01133 _00307_DS_:
014F   1803           01134         BTFSC   STATUS,0
0150   2???           01135         GOTO    _00168_DS_
                      01136 ;;genSkipc:3257: created from rifx:0x7fff7f40e400
                      01137 ;;swapping arguments (AOP_TYPEs 1/3)
                      01138 ;;unsigned compare: left >= lit(0x547=1351), size=2
                      01139 ;       .line   213; "main.c"   if (w > MIN_W1 && w < MAX_W1 && w1 > MIN_W1 && w1 < MAX_W1){
0151   3005           01140         MOVLW   0x05
0152   ???? ????      01141         BANKSEL _w
0154   02??           01142         SUBWF   (_w + 1),W
0155   1D03           01143         BTFSS   STATUS,2
0156   2???           01144         GOTO    _00308_DS_
0157   3047           01145         MOVLW   0x47
0158   02??           01146         SUBWF   _w,W
0159                  01147 _00308_DS_:
0159   1C03           01148         BTFSS   STATUS,0
015A   2???           01149         GOTO    _00153_DS_
                      01150 ;;genSkipc:3257: created from rifx:0x7fff7f40e400
                      01151 ;;unsigned compare: left < lit(0x596=1430), size=2
015B   3005           01152         MOVLW   0x05
015C   ???? ????      01153         BANKSEL _w
015E   02??           01154         SUBWF   (_w + 1),W
015F   1D03           01155         BTFSS   STATUS,2
0160   2???           01156         GOTO    _00309_DS_
gpasm-1.4.0 #1107 (May  9 2015) build/default   4-28-2017  14:58:28         PAGE 23


LOC    OBJECT CODE    LINE  SOURCE TEXT
  VALUE

0161   3096           01157         MOVLW   0x96
0162   02??           01158         SUBWF   _w,W
0163                  01159 _00309_DS_:
0163   1803           01160         BTFSC   STATUS,0
0164   2???           01161         GOTO    _00153_DS_
                      01162 ;;genSkipc:3257: created from rifx:0x7fff7f40e400
                      01163 ;;swapping arguments (AOP_TYPEs 1/3)
                      01164 ;;unsigned compare: left >= lit(0x547=1351), size=2
0165   3005           01165         MOVLW   0x05
0166   ???? ????      01166         BANKSEL _w1
0168   02??           01167         SUBWF   (_w1 + 1),W
0169   1D03           01168         BTFSS   STATUS,2
016A   2???           01169         GOTO    _00310_DS_
016B   3047           01170         MOVLW   0x47
016C   02??           01171         SUBWF   _w1,W
016D                  01172 _00310_DS_:
016D   1C03           01173         BTFSS   STATUS,0
016E   2???           01174         GOTO    _00153_DS_
                      01175 ;;genSkipc:3257: created from rifx:0x7fff7f40e400
                      01176 ;;unsigned compare: left < lit(0x596=1430), size=2
016F   3005           01177         MOVLW   0x05
0170   ???? ????      01178         BANKSEL _w1
0172   02??           01179         SUBWF   (_w1 + 1),W
0173   1D03           01180         BTFSS   STATUS,2
0174   2???           01181         GOTO    _00311_DS_
0175   3096           01182         MOVLW   0x96
0176   02??           01183         SUBWF   _w1,W
0177                  01184 _00311_DS_:
0177   1803           01185         BTFSC   STATUS,0
0178   2???           01186         GOTO    _00153_DS_
                      01187 ;;genSkipc:3257: created from rifx:0x7fff7f40e400
                      01188 ;       .line   215; "main.c"   RecAddress[i] = BIT1;
0179   ???? ????      01189         BANKSEL r0x1042
017B   08??           01190         MOVF    r0x1042,W
017C   3E??           01191         ADDLW   (_RecAddress + 0)
017D   00??           01192         MOVWF   r0x1043
017E   30??           01193         MOVLW   high (_RecAddress + 0)
017F   1803           01194         BTFSC   STATUS,0
0180   3E01           01195         ADDLW   0x01
0181   00??           01196         MOVWF   r0x1044
0182   08??           01197         MOVF    r0x1043,W
0183   1283 1303      01198         BANKSEL FSR
0185   0084           01199         MOVWF   FSR
0186   1383           01200         BCF     STATUS,7
0187   ???? ????      01201         BANKSEL r0x1044
0189   18??           01202         BTFSC   r0x1044,0
018A   1783           01203         BSF     STATUS,7
018B   3002           01204         MOVLW   0x02
018C   1283 1303      01205         BANKSEL INDF
018E   0080           01206         MOVWF   INDF
                      01207 ;       .line   216; "main.c"   t = 0;
018F   ???? ????      01208         BANKSEL _t
0191   01??           01209         CLRF    _t
gpasm-1.4.0 #1107 (May  9 2015) build/default   4-28-2017  14:58:28         PAGE 24


LOC    OBJECT CODE    LINE  SOURCE TEXT
  VALUE

0192   01??           01210         CLRF    (_t + 1)
                      01211 ;       .line   217; "main.c"   w = 0;
0193   ???? ????      01212         BANKSEL _w
0195   01??           01213         CLRF    _w
0196   01??           01214         CLRF    (_w + 1)
                      01215 ;       .line   218; "main.c"   i++;
0197   ???? ????      01216         BANKSEL r0x1042
0199   0A??           01217         INCF    r0x1042,F
                      01218 ;;swapping arguments (AOP_TYPEs 1/3)
                      01219 ;;unsigned compare: left >= lit(0x17D=381), size=2
019A                  01220 _00153_DS_:
                      01221 ;       .line   220; "main.c"   if (w > MIN_W0 && w < MAX_W0 && w1 > MIN_W0 && w1 < MAX_W0){
019A   3001           01222         MOVLW   0x01
019B   ???? ????      01223         BANKSEL _w
019D   02??           01224         SUBWF   (_w + 1),W
019E   1D03           01225         BTFSS   STATUS,2
019F   2???           01226         GOTO    _00312_DS_
01A0   307D           01227         MOVLW   0x7d
01A1   02??           01228         SUBWF   _w,W
01A2                  01229 _00312_DS_:
01A2   1C03           01230         BTFSS   STATUS,0
01A3   2???           01231         GOTO    _00158_DS_
                      01232 ;;genSkipc:3257: created from rifx:0x7fff7f40e400
                      01233 ;;unsigned compare: left < lit(0x1C2=450), size=2
01A4   3001           01234         MOVLW   0x01
01A5   ???? ????      01235         BANKSEL _w
01A7   02??           01236         SUBWF   (_w + 1),W
01A8   1D03           01237         BTFSS   STATUS,2
01A9   2???           01238         GOTO    _00313_DS_
01AA   30C2           01239         MOVLW   0xc2
01AB   02??           01240         SUBWF   _w,W
01AC                  01241 _00313_DS_:
01AC   1803           01242         BTFSC   STATUS,0
01AD   2???           01243         GOTO    _00158_DS_
                      01244 ;;genSkipc:3257: created from rifx:0x7fff7f40e400
                      01245 ;;swapping arguments (AOP_TYPEs 1/3)
                      01246 ;;unsigned compare: left >= lit(0x17D=381), size=2
01AE   3001           01247         MOVLW   0x01
01AF   ???? ????      01248         BANKSEL _w1
01B1   02??           01249         SUBWF   (_w1 + 1),W
01B2   1D03           01250         BTFSS   STATUS,2
01B3   2???           01251         GOTO    _00314_DS_
01B4   307D           01252         MOVLW   0x7d
01B5   02??           01253         SUBWF   _w1,W
01B6                  01254 _00314_DS_:
01B6   1C03           01255         BTFSS   STATUS,0
01B7   2???           01256         GOTO    _00158_DS_
                      01257 ;;genSkipc:3257: created from rifx:0x7fff7f40e400
                      01258 ;;unsigned compare: left < lit(0x1C2=450), size=2
01B8   3001           01259         MOVLW   0x01
01B9   ???? ????      01260         BANKSEL _w1
01BB   02??           01261         SUBWF   (_w1 + 1),W
01BC   1D03           01262         BTFSS   STATUS,2
gpasm-1.4.0 #1107 (May  9 2015) build/default   4-28-2017  14:58:28         PAGE 25


LOC    OBJECT CODE    LINE  SOURCE TEXT
  VALUE

01BD   2???           01263         GOTO    _00315_DS_
01BE   30C2           01264         MOVLW   0xc2
01BF   02??           01265         SUBWF   _w1,W
01C0                  01266 _00315_DS_:
01C0   1803           01267         BTFSC   STATUS,0
01C1   2???           01268         GOTO    _00158_DS_
                      01269 ;;genSkipc:3257: created from rifx:0x7fff7f40e400
                      01270 ;       .line   222; "main.c"   RecAddress[i] = BIT0;
01C2   ???? ????      01271         BANKSEL r0x1042
01C4   08??           01272         MOVF    r0x1042,W
01C5   3E??           01273         ADDLW   (_RecAddress + 0)
01C6   00??           01274         MOVWF   r0x1043
01C7   30??           01275         MOVLW   high (_RecAddress + 0)
01C8   1803           01276         BTFSC   STATUS,0
01C9   3E01           01277         ADDLW   0x01
01CA   00??           01278         MOVWF   r0x1044
01CB   08??           01279         MOVF    r0x1043,W
01CC   1283 1303      01280         BANKSEL FSR
01CE   0084           01281         MOVWF   FSR
01CF   1383           01282         BCF     STATUS,7
01D0   ???? ????      01283         BANKSEL r0x1044
01D2   18??           01284         BTFSC   r0x1044,0
01D3   1783           01285         BSF     STATUS,7
01D4   3001           01286         MOVLW   0x01
01D5   1283 1303      01287         BANKSEL INDF
01D7   0080           01288         MOVWF   INDF
                      01289 ;       .line   223; "main.c"   t = 0;
01D8   ???? ????      01290         BANKSEL _t
01DA   01??           01291         CLRF    _t
01DB   01??           01292         CLRF    (_t + 1)
                      01293 ;       .line   224; "main.c"   w = 0;
01DC   ???? ????      01294         BANKSEL _w
01DE   01??           01295         CLRF    _w
01DF   01??           01296         CLRF    (_w + 1)
                      01297 ;       .line   225; "main.c"   i++;
01E0   ???? ????      01298         BANKSEL r0x1042
01E2   0A??           01299         INCF    r0x1042,F
                      01300 ;;swapping arguments (AOP_TYPEs 1/3)
                      01301 ;;unsigned compare: left >= lit(0x17D=381), size=2
01E3                  01302 _00158_DS_:
                      01303 ;       .line   227; "main.c"   if (w1 > MIN_W0 && w1 < MAX_W0 && w > MIN_W1 && w < MAX_W1){
01E3   3001           01304         MOVLW   0x01
01E4   ???? ????      01305         BANKSEL _w1
01E6   02??           01306         SUBWF   (_w1 + 1),W
01E7   1D03           01307         BTFSS   STATUS,2
01E8   2???           01308         GOTO    _00316_DS_
01E9   307D           01309         MOVLW   0x7d
01EA   02??           01310         SUBWF   _w1,W
01EB                  01311 _00316_DS_:
01EB   1C03           01312         BTFSS   STATUS,0
01EC   2???           01313         GOTO    _00168_DS_
                      01314 ;;genSkipc:3257: created from rifx:0x7fff7f40e400
                      01315 ;;unsigned compare: left < lit(0x1C2=450), size=2
gpasm-1.4.0 #1107 (May  9 2015) build/default   4-28-2017  14:58:28         PAGE 26


LOC    OBJECT CODE    LINE  SOURCE TEXT
  VALUE

01ED   3001           01316         MOVLW   0x01
01EE   ???? ????      01317         BANKSEL _w1
01F0   02??           01318         SUBWF   (_w1 + 1),W
01F1   1D03           01319         BTFSS   STATUS,2
01F2   2???           01320         GOTO    _00317_DS_
01F3   30C2           01321         MOVLW   0xc2
01F4   02??           01322         SUBWF   _w1,W
01F5                  01323 _00317_DS_:
01F5   1803           01324         BTFSC   STATUS,0
01F6   2???           01325         GOTO    _00168_DS_
                      01326 ;;genSkipc:3257: created from rifx:0x7fff7f40e400
                      01327 ;;swapping arguments (AOP_TYPEs 1/3)
                      01328 ;;unsigned compare: left >= lit(0x547=1351), size=2
01F7   3005           01329         MOVLW   0x05
01F8   ???? ????      01330         BANKSEL _w
01FA   02??           01331         SUBWF   (_w + 1),W
01FB   1D03           01332         BTFSS   STATUS,2
01FC   2???           01333         GOTO    _00318_DS_
01FD   3047           01334         MOVLW   0x47
01FE   02??           01335         SUBWF   _w,W
01FF                  01336 _00318_DS_:
01FF   1C03           01337         BTFSS   STATUS,0
0200   2???           01338         GOTO    _00168_DS_
                      01339 ;;genSkipc:3257: created from rifx:0x7fff7f40e400
                      01340 ;;unsigned compare: left < lit(0x596=1430), size=2
0201   3005           01341         MOVLW   0x05
0202   ???? ????      01342         BANKSEL _w
0204   02??           01343         SUBWF   (_w + 1),W
0205   1D03           01344         BTFSS   STATUS,2
0206   2???           01345         GOTO    _00319_DS_
0207   3096           01346         MOVLW   0x96
0208   02??           01347         SUBWF   _w,W
0209                  01348 _00319_DS_:
0209   1803           01349         BTFSC   STATUS,0
020A   2???           01350         GOTO    _00168_DS_
                      01351 ;;genSkipc:3257: created from rifx:0x7fff7f40e400
                      01352 ;       .line   229; "main.c"   RecAddress[i] = BITF;
020B   ???? ????      01353         BANKSEL r0x1042
020D   08??           01354         MOVF    r0x1042,W
020E   3E??           01355         ADDLW   (_RecAddress + 0)
020F   00??           01356         MOVWF   r0x1043
0210   30??           01357         MOVLW   high (_RecAddress + 0)
0211   1803           01358         BTFSC   STATUS,0
0212   3E01           01359         ADDLW   0x01
0213   00??           01360         MOVWF   r0x1044
0214   08??           01361         MOVF    r0x1043,W
0215   1283 1303      01362         BANKSEL FSR
0217   0084           01363         MOVWF   FSR
0218   1383           01364         BCF     STATUS,7
0219   ???? ????      01365         BANKSEL r0x1044
021B   18??           01366         BTFSC   r0x1044,0
021C   1783           01367         BSF     STATUS,7
021D   3003           01368         MOVLW   0x03
gpasm-1.4.0 #1107 (May  9 2015) build/default   4-28-2017  14:58:28         PAGE 27


LOC    OBJECT CODE    LINE  SOURCE TEXT
  VALUE

021E   1283 1303      01369         BANKSEL INDF
0220   0080           01370         MOVWF   INDF
                      01371 ;       .line   230; "main.c"   t = 0;
0221   ???? ????      01372         BANKSEL _t
0223   01??           01373         CLRF    _t
0224   01??           01374         CLRF    (_t + 1)
                      01375 ;       .line   231; "main.c"   w = 0;
0225   ???? ????      01376         BANKSEL _w
0227   01??           01377         CLRF    _w
0228   01??           01378         CLRF    (_w + 1)
                      01379 ;       .line   232; "main.c"   i++;
0229   ???? ????      01380         BANKSEL r0x1042
022B   0A??           01381         INCF    r0x1042,F
                      01382 ;;swapping arguments (AOP_TYPEs 1/3)
                      01383 ;;unsigned compare: left >= lit(0x3A99=15001), size=2
022C                  01384 _00168_DS_:
                      01385 ;       .line   235; "main.c"   if (t > MIN_TS && t < MAX_TS && w > MIN_W0 && w < MAX_W0){
022C   303A           01386         MOVLW   0x3a
022D   ???? ????      01387         BANKSEL _t
022F   02??           01388         SUBWF   (_t + 1),W
0230   1D03           01389         BTFSS   STATUS,2
0231   2???           01390         GOTO    _00320_DS_
0232   3099           01391         MOVLW   0x99
0233   02??           01392         SUBWF   _t,W
0234                  01393 _00320_DS_:
0234   1C03           01394         BTFSS   STATUS,0
0235   2???           01395         GOTO    _00178_DS_
                      01396 ;;genSkipc:3257: created from rifx:0x7fff7f40e400
                      01397 ;;unsigned compare: left < lit(0x3E80=16000), size=2
0236   303E           01398         MOVLW   0x3e
0237   ???? ????      01399         BANKSEL _t
0239   02??           01400         SUBWF   (_t + 1),W
023A   1D03           01401         BTFSS   STATUS,2
023B   2???           01402         GOTO    _00321_DS_
023C   3080           01403         MOVLW   0x80
023D   02??           01404         SUBWF   _t,W
023E                  01405 _00321_DS_:
023E   1803           01406         BTFSC   STATUS,0
023F   2???           01407         GOTO    _00178_DS_
                      01408 ;;genSkipc:3257: created from rifx:0x7fff7f40e400
                      01409 ;;swapping arguments (AOP_TYPEs 1/3)
                      01410 ;;unsigned compare: left >= lit(0x17D=381), size=2
0240   3001           01411         MOVLW   0x01
0241   ???? ????      01412         BANKSEL _w
0243   02??           01413         SUBWF   (_w + 1),W
0244   1D03           01414         BTFSS   STATUS,2
0245   2???           01415         GOTO    _00322_DS_
0246   307D           01416         MOVLW   0x7d
0247   02??           01417         SUBWF   _w,W
0248                  01418 _00322_DS_:
0248   1C03           01419         BTFSS   STATUS,0
0249   2???           01420         GOTO    _00178_DS_
                      01421 ;;genSkipc:3257: created from rifx:0x7fff7f40e400
gpasm-1.4.0 #1107 (May  9 2015) build/default   4-28-2017  14:58:28         PAGE 28


LOC    OBJECT CODE    LINE  SOURCE TEXT
  VALUE

                      01422 ;;unsigned compare: left < lit(0x1C2=450), size=2
024A   3001           01423         MOVLW   0x01
024B   ???? ????      01424         BANKSEL _w
024D   02??           01425         SUBWF   (_w + 1),W
024E   1D03           01426         BTFSS   STATUS,2
024F   2???           01427         GOTO    _00323_DS_
0250   30C2           01428         MOVLW   0xc2
0251   02??           01429         SUBWF   _w,W
0252                  01430 _00323_DS_:
0252   1803           01431         BTFSC   STATUS,0
0253   2???           01432         GOTO    _00178_DS_
                      01433 ;;genSkipc:3257: created from rifx:0x7fff7f40e400
                      01434 ;       .line   236; "main.c"   SP_send_buf(sync);
0254   30??           01435         MOVLW   high (_sync + 0)
0255   ???? ????      01436         BANKSEL r0x1044
0257   00??           01437         MOVWF   r0x1044
0258   30??           01438         MOVLW   (_sync + 0)
0259   00??           01439         MOVWF   r0x1043
025A   3080           01440         MOVLW   0x80
025B   00??           01441         MOVWF   r0x1046
025C   08??           01442         MOVF    r0x1043,W
025D   00??           01443         MOVWF   STK01
025E   08??           01444         MOVF    r0x1044,W
025F   00??           01445         MOVWF   STK00
0260   08??           01446         MOVF    r0x1046,W
0261   ????           01447         PAGESEL _SP_send_buf
0262   2???           01448         CALL    _SP_send_buf
0263   ????           01449         PAGESEL $
                      01450 ;       .line   237; "main.c"   t = 0;
0264   ???? ????      01451         BANKSEL _t
0266   01??           01452         CLRF    _t
0267   01??           01453         CLRF    (_t + 1)
                      01454 ;       .line   238; "main.c"   w = 0;
0268   ???? ????      01455         BANKSEL _w
026A   01??           01456         CLRF    _w
026B   01??           01457         CLRF    (_w + 1)
                      01458 ;       .line   239; "main.c"   temp = 1;
026C   3001           01459         MOVLW   0x01
026D   ???? ????      01460         BANKSEL r0x1043
026F   00??           01461         MOVWF   r0x1043
                      01462 ;       .line   240; "main.c"   i--;
0270   03??           01463         DECF    r0x1042,F
                      01464 ;       .line   241; "main.c"   GIE = 0; //not tested
0271   ???? ????      01465         BANKSEL _INTCONbits
0273   13??           01466         BCF     _INTCONbits,7
                      01467 ;       .line   242; "main.c"   for(j = 11; j != 0; j--){
0274   ???? ????      01468         BANKSEL r0x1042
0276   08??           01469         MOVF    r0x1042,W
0277   00??           01470         MOVWF   r0x1044
0278   300B           01471         MOVLW   0x0b
0279   00??           01472         MOVWF   r0x1046
027A                  01473 _00193_DS_:
                      01474 ;       .line   244; "main.c"   if (RecAddress[i] != SetAddress[j]){
gpasm-1.4.0 #1107 (May  9 2015) build/default   4-28-2017  14:58:28         PAGE 29


LOC    OBJECT CODE    LINE  SOURCE TEXT
  VALUE

027A   ???? ????      01475         BANKSEL r0x1044
027C   08??           01476         MOVF    r0x1044,W
027D   3E??           01477         ADDLW   (_RecAddress + 0)
027E   00??           01478         MOVWF   r0x1045
027F   30??           01479         MOVLW   high (_RecAddress + 0)
0280   1803           01480         BTFSC   STATUS,0
0281   3E01           01481         ADDLW   0x01
0282   00??           01482         MOVWF   r0x1047
0283   08??           01483         MOVF    r0x1045,W
0284   1283 1303      01484         BANKSEL FSR
0286   0084           01485         MOVWF   FSR
0287   1383           01486         BCF     STATUS,7
0288   ???? ????      01487         BANKSEL r0x1047
028A   18??           01488         BTFSC   r0x1047,0
028B   1783           01489         BSF     STATUS,7
028C   1283 1303      01490         BANKSEL INDF
028E   0800           01491         MOVF    INDF,W
028F   ???? ????      01492         BANKSEL r0x1048
0291   00??           01493         MOVWF   r0x1048
0292   08??           01494         MOVF    r0x1046,W
0293   3E??           01495         ADDLW   (_SetAddress + 0)
0294   00??           01496         MOVWF   r0x1045
0295   30??           01497         MOVLW   high (_SetAddress + 0)
0296   1803           01498         BTFSC   STATUS,0
0297   3E01           01499         ADDLW   0x01
0298   00??           01500         MOVWF   r0x1047
0299   08??           01501         MOVF    r0x1045,W
029A   1283 1303      01502         BANKSEL FSR
029C   0084           01503         MOVWF   FSR
029D   1383           01504         BCF     STATUS,7
029E   ???? ????      01505         BANKSEL r0x1047
02A0   18??           01506         BTFSC   r0x1047,0
02A1   1783           01507         BSF     STATUS,7
02A2   1283 1303      01508         BANKSEL INDF
02A4   0800           01509         MOVF    INDF,W
                      01510 ;;1     MOVWF   r0x1049
                      01511 ;       .line   245; "main.c"   temp = 0;
02A5   ???? ????      01512         BANKSEL r0x1048
02A7   06??           01513         XORWF   r0x1048,W
                      01514 ;       .line   247; "main.c"   i--;
02A8   1D03           01515         BTFSS   STATUS,2
02A9   01??           01516         CLRF    r0x1043
02AA   03??           01517         DECF    r0x1044,F
                      01518 ;       .line   242; "main.c"   for(j = 11; j != 0; j--){
02AB   0B??           01519         DECFSZ  r0x1046,F
02AC   2???           01520         GOTO    _00193_DS_
02AD   08??           01521         MOVF    r0x1044,W
02AE   00??           01522         MOVWF   r0x1042
                      01523 ;       .line   249; "main.c"   GIE = 1;
02AF   ???? ????      01524         BANKSEL _INTCONbits
02B1   17??           01525         BSF     _INTCONbits,7
                      01526 ;       .line   251; "main.c"   if(temp){
02B2   ???? ????      01527         BANKSEL r0x1043
gpasm-1.4.0 #1107 (May  9 2015) build/default   4-28-2017  14:58:28         PAGE 30


LOC    OBJECT CODE    LINE  SOURCE TEXT
  VALUE

02B4   08??           01528         MOVF    r0x1043,W
02B5   1903           01529         BTFSC   STATUS,2
02B6   2???           01530         GOTO    _00178_DS_
                      01531 ;       .line   252; "main.c"   SP_send_buf(light);
02B7   30??           01532         MOVLW   high (_light + 0)
02B8   00??           01533         MOVWF   r0x1044
02B9   30??           01534         MOVLW   (_light + 0)
02BA   00??           01535         MOVWF   r0x1043
02BB   3080           01536         MOVLW   0x80
02BC   00??           01537         MOVWF   r0x1046
02BD   08??           01538         MOVF    r0x1043,W
02BE   00??           01539         MOVWF   STK01
02BF   08??           01540         MOVF    r0x1044,W
02C0   00??           01541         MOVWF   STK00
02C1   08??           01542         MOVF    r0x1046,W
02C2   ????           01543         PAGESEL _SP_send_buf
02C3   2???           01544         CALL    _SP_send_buf
02C4   ????           01545         PAGESEL $
                      01546 ;       .line   253; "main.c"   OUT_PIN = 1;
02C5   ???? ????      01547         BANKSEL _PORTBbits
02C7   17??           01548         BSF     _PORTBbits,6
                      01549 ;       .line   254; "main.c"   TMR0 = 0;       // Enable timer
02C8   01??           01550         CLRF    _TMR0
                      01551 ;       .line   255; "main.c"   T0IE = 1;
02C9   16??           01552         BSF     _INTCONbits,5
02CA                  01553 _00178_DS_:
                      01554 ;       .line   264; "main.c"   t1 = t;
02CA   ???? ????      01555         BANKSEL _t
02CC   08??           01556         MOVF    _t,W
02CD   ???? ????      01557         BANKSEL _t1
02CF   00??           01558         MOVWF   _t1
02D0   ???? ????      01559         BANKSEL _t
02D2   08??           01560         MOVF    (_t + 1),W
02D3   ???? ????      01561         BANKSEL _t1
02D5   00??           01562         MOVWF   (_t1 + 1)
                      01563 ;       .line   265; "main.c"   w1 = w;
02D6   ???? ????      01564         BANKSEL _w
02D8   08??           01565         MOVF    _w,W
02D9   ???? ????      01566         BANKSEL _w1
02DB   00??           01567         MOVWF   _w1
02DC   ???? ????      01568         BANKSEL _w
02DE   08??           01569         MOVF    (_w + 1),W
02DF   ???? ????      01570         BANKSEL _w1
02E1   00??           01571         MOVWF   (_w1 + 1)
02E2                  01572 _00183_DS_:
                      01573 ;       .line   268; "main.c"   int_error_cnt = 0;
02E2   ???? ????      01574         BANKSEL _int_error_cnt
02E4   01??           01575         CLRF    _int_error_cnt
                      01576 ;;unsigned compare: left < lit(0x13=19), size=1
                      01577 ;       .line   269; "main.c"   if(i >= 19){
02E5   3013           01578         MOVLW   0x13
02E6   ???? ????      01579         BANKSEL r0x1042
02E8   02??           01580         SUBWF   r0x1042,W
gpasm-1.4.0 #1107 (May  9 2015) build/default   4-28-2017  14:58:28         PAGE 31


LOC    OBJECT CODE    LINE  SOURCE TEXT
  VALUE

02E9   1C03           01581         BTFSS   STATUS,0
02EA   2???           01582         GOTO    _00187_DS_
                      01583 ;;genSkipc:3257: created from rifx:0x7fff7f40e400
                      01584 ;       .line   270; "main.c"   i = 0;
02EB   01??           01585         CLRF    r0x1042
02EC   2???           01586         GOTO    _00187_DS_
02ED   0008           01587         RETURN  
                      01588 ; exit point of _main
                      01589 
                      01590 ;***
                      01591 ;  pBlock Stats: dbName = C
                      01592 ;***
                      01593 ;has an exit
                      01594 ;functions called:
                      01595 ;   _SP_send
                      01596 ;   _SP_send
                      01597 ;7 compiler assigned registers:
                      01598 ;   r0x103D
                      01599 ;   r0x103E
                      01600 ;   r0x103F
                      01601 ;   r0x1040
                      01602 ;   r0x1041
                      01603 ;   STK01
                      01604 ;   STK00
                      01605 ;; Starting pCode block
                      01606 S_main__circBufPush     code
0000                  01607 _circBufPush:
                      01608 ; 2 exit points
                      01609 ;       .line   275; "main.c"   int circBufPush(uint8_t data){
0000   ???? ????      01610         BANKSEL r0x103D
0002   00??           01611         MOVWF   r0x103D
                      01612 ;       .line   276; "main.c"   uint8_t next = buf_head + 1;
0003   ???? ????      01613         BANKSEL _buf_head
0005   0A??           01614         INCF    _buf_head,W
0006   ???? ????      01615         BANKSEL r0x103E
0008   00??           01616         MOVWF   r0x103E
                      01617 ;;unsigned compare: left < lit(0x10=16), size=1
                      01618 ;       .line   277; "main.c"   if (next >= BUF_SIZE)
0009   3010           01619         MOVLW   0x10
                      01620 ;       .line   278; "main.c"   next = 0;
000A   02??           01621         SUBWF   r0x103E,W
                      01622 ;       .line   281; "main.c"   if (next == buf_tail){
000B   1803           01623         BTFSC   STATUS,0
000C   01??           01624         CLRF    r0x103E
000D   ???? ????      01625         BANKSEL _buf_tail
000F   08??           01626         MOVF    _buf_tail,W
0010   ???? ????      01627         BANKSEL r0x103E
0012   06??           01628         XORWF   r0x103E,W
0013   1D03           01629         BTFSS   STATUS,2
0014   2???           01630         GOTO    _00332_DS_
                      01631 ;       .line   282; "main.c"   SP_send(buf_err);
0015   30??           01632         MOVLW   high (_buf_err + 0)
0016   00??           01633         MOVWF   r0x103F
gpasm-1.4.0 #1107 (May  9 2015) build/default   4-28-2017  14:58:28         PAGE 32


LOC    OBJECT CODE    LINE  SOURCE TEXT
  VALUE

0017   30??           01634         MOVLW   (_buf_err + 0)
0018   00??           01635         MOVWF   r0x1040
0019   3080           01636         MOVLW   0x80
001A   00??           01637         MOVWF   r0x1041
001B   08??           01638         MOVF    r0x1040,W
001C   00??           01639         MOVWF   STK01
001D   08??           01640         MOVF    r0x103F,W
001E   00??           01641         MOVWF   STK00
001F   08??           01642         MOVF    r0x1041,W
0020   ????           01643         PAGESEL _SP_send
0021   2???           01644         CALL    _SP_send
0022   ????           01645         PAGESEL $
                      01646 ;       .line   283; "main.c"   return -1;  // quit with an error
0023   30FF           01647         MOVLW   0xff
0024   00??           01648         MOVWF   STK00
0025   30FF           01649         MOVLW   0xff
0026   2???           01650         GOTO    _00333_DS_
0027                  01651 _00332_DS_:
                      01652 ;       .line   286; "main.c"   buf[buf_head] = data;
0027   ???? ????      01653         BANKSEL _buf_head
0029   08??           01654         MOVF    _buf_head,W
002A   3E??           01655         ADDLW   (_buf + 0)
002B   ???? ????      01656         BANKSEL r0x1040
002D   00??           01657         MOVWF   r0x1040
002E   30??           01658         MOVLW   high (_buf + 0)
002F   1803           01659         BTFSC   STATUS,0
0030   3E01           01660         ADDLW   0x01
0031   00??           01661         MOVWF   r0x103F
0032   08??           01662         MOVF    r0x1040,W
0033   1283 1303      01663         BANKSEL FSR
0035   0084           01664         MOVWF   FSR
0036   1383           01665         BCF     STATUS,7
0037   ???? ????      01666         BANKSEL r0x103F
0039   18??           01667         BTFSC   r0x103F,0
003A   1783           01668         BSF     STATUS,7
003B   08??           01669         MOVF    r0x103D,W
003C   1283 1303      01670         BANKSEL INDF
003E   0080           01671         MOVWF   INDF
                      01672 ;       .line   287; "main.c"   buf_head = next;
003F   ???? ????      01673         BANKSEL r0x103E
0041   08??           01674         MOVF    r0x103E,W
0042   ???? ????      01675         BANKSEL _buf_head
0044   00??           01676         MOVWF   _buf_head
                      01677 ;       .line   288; "main.c"   TXIE = 1;       //Enables the EUSART transmit interrupt
0045   ???? ????      01678         BANKSEL _PIE1bits
0047   16??           01679         BSF     _PIE1bits,4
                      01680 ;       .line   289; "main.c"   return 0;
0048   3000           01681         MOVLW   0x00
0049   00??           01682         MOVWF   STK00
004A   3000           01683         MOVLW   0x00
004B                  01684 _00333_DS_:
004B   0008           01685         RETURN  
                      01686 ; exit point of _circBufPush
gpasm-1.4.0 #1107 (May  9 2015) build/default   4-28-2017  14:58:28         PAGE 33


LOC    OBJECT CODE    LINE  SOURCE TEXT
  VALUE

                      01687 
                      01688 
                      01689 ;       code size estimation:
                      01690 ;         677+  188 =   865 instructions ( 2106 byte)
                      01691 
                      01692         end
gpasm-1.4.0 #1107 (May  9 2015) build/default   4-28-2017  14:58:28         PAGE 34


SYMBOL TABLE
  LABEL                             VALUE

ABDEN                             00000000
ABDOVF                            00000007
ADCON0                            0000001F
ADCON1                            0000009F
ADCS0                             00000004
ADCS1                             00000005
ADCS2                             00000006
ADDEN                             00000003
ADFM                              00000007
ADIE                              00000006
ADIF                              00000006
ADON                              00000000
ADRESH                            0000001E
ADRESL                            0000009E
ANS0                              00000000
ANS1                              00000001
ANS10                             00000002
ANS11                             00000003
ANS2                              00000002
ANS3                              00000003
ANS4                              00000004
ANS5                              00000005
ANS6                              00000006
ANS7                              00000007
ANS8                              00000000
ANS9                              00000001
ANSEL                             0000011E
ANSELH                            0000011F
BAUDCTL                           0000009B
BF                                00000000
BRG0                              00000000
BRG1                              00000001
BRG10                             00000002
BRG11                             00000003
BRG12                             00000004
BRG13                             00000005
BRG14                             00000006
BRG15                             00000007
BRG16                             00000003
BRG2                              00000002
BRG3                              00000003
BRG4                              00000004
BRG5                              00000005
BRG6                              00000006
BRG7                              00000007
BRG8                              00000000
BRG9                              00000001
BRGH                              00000002
C                                 00000000
C1CH0                             00000000
C1CH1                             00000001
C1IE                              00000005
C1IF                              00000005
gpasm-1.4.0 #1107 (May  9 2015) build/default   4-28-2017  14:58:28         PAGE 35


SYMBOL TABLE
  LABEL                             VALUE 

C1OE                              00000005
C1ON                              00000007
C1OUT                             00000006
C1POL                             00000004
C1R                               00000002
C1SEN                             00000005
C1VREN                            00000007
C2CH0                             00000000
C2CH1                             00000001
C2IE                              00000006
C2IF                              00000006
C2OE                              00000005
C2ON                              00000007
C2OUT                             00000006
C2POL                             00000004
C2R                               00000002
C2REN                             00000004
C2SYNC                            00000000
C2VREN                            00000006
CCP1CON                           00000017
CCP1IE                            00000002
CCP1IF                            00000002
CCP1M0                            00000000
CCP1M1                            00000001
CCP1M2                            00000002
CCP1M3                            00000003
CCPR                              00000015
CCPR1H                            00000016
CCPR1L                            00000015
CHS0                              00000002
CHS1                              00000003
CHS2                              00000004
CHS3                              00000005
CKE                               00000006
CKP                               00000004
CM1CON0                           00000119
CM2CON0                           0000011A
CM2CON1                           0000011B
CREN                              00000004
CSRC                              00000007
D                                 00000005
DATA_ADDRESS                      00000005
DC                                00000001
DC1B0                             00000004
DC1B1                             00000005
D_A                               00000005
D_NOT_A                           00000005
ECCPAS                            0000001D
ECCPAS0                           00000004
ECCPAS1                           00000005
ECCPAS2                           00000006
ECCPASE                           00000007
EEADR                             0000010D
gpasm-1.4.0 #1107 (May  9 2015) build/default   4-28-2017  14:58:28         PAGE 36


SYMBOL TABLE
  LABEL                             VALUE 

EEADRH                            0000010F
EECON1                            0000018C
EECON2                            0000018D
EEDAT                             0000010C
EEDATA                            0000010C
EEDATH                            0000010E
EEIE                              00000004
EEIF                              00000004
EEPGD                             00000007
END_OF_INTERRUPT                  000000C6
F                                 00000001
FERR                              00000002
FSR                               00000004
GIE                               00000007
GO                                00000001
GO_DONE                           00000001
GO_NOT_DONE                       00000001
HTS                               00000002
I2C_DATA                          00000005
I2C_READ                          00000002
I2C_START                         00000003
I2C_STOP                          00000004
INDF                              00000000
INTCON                            0000000B
INTE                              00000004
INTEDG                            00000006
INTF                              00000001
IOC                               00000096
IOC0                              00000000
IOC1                              00000001
IOC2                              00000002
IOC3                              00000003
IOC4                              00000004
IOC5                              00000005
IOCA                              00000096
IOCA0                             00000000
IOCA1                             00000001
IOCA2                             00000002
IOCA3                             00000003
IOCA4                             00000004
IOCA5                             00000005
IOCB                              00000116
IOCB4                             00000004
IOCB5                             00000005
IOCB6                             00000006
IOCB7                             00000007
IRCF0                             00000004
IRCF1                             00000005
IRCF2                             00000006
IRP                               00000007
LTS                               00000001
MC1OUT                            00000007
MC2OUT                            00000006
gpasm-1.4.0 #1107 (May  9 2015) build/default   4-28-2017  14:58:28         PAGE 37


SYMBOL TABLE
  LABEL                             VALUE 

MSK                               00000093
MSK0                              00000000
MSK1                              00000001
MSK2                              00000002
MSK3                              00000003
MSK4                              00000004
MSK5                              00000005
MSK6                              00000006
MSK7                              00000007
NOT_A                             00000005
NOT_ADDRESS                       00000005
NOT_BOR                           00000000
NOT_DONE                          00000001
NOT_PD                            00000003
NOT_POR                           00000001
NOT_RABPU                         00000007
NOT_T1SYNC                        00000002
NOT_TO                            00000004
NOT_W                             00000002
NOT_WRITE                         00000002
OERR                              00000001
OPTION_REG                        00000081
OSCCON                            0000008F
OSCTUNE                           00000090
OSFIE                             00000007
OSFIF                             00000007
OSTS                              00000003
P                                 00000004
P1M0                              00000006
P1M1                              00000007
PCL                               00000002
PCLATH                            0000000A
PCON                              0000008E
PDC0                              00000000
PDC1                              00000001
PDC2                              00000002
PDC3                              00000003
PDC4                              00000004
PDC5                              00000005
PDC6                              00000006
PEIE                              00000006
PIE1                              0000008C
PIE2                              0000008D
PIR1                              0000000C
PIR2                              0000000D
PORTA                             00000005
PORTB                             00000006
PORTC                             00000007
PR2                               00000092
PRSEN                             00000007
PS0                               00000000
PS1                               00000001
PS2                               00000002
gpasm-1.4.0 #1107 (May  9 2015) build/default   4-28-2017  14:58:28         PAGE 38


SYMBOL TABLE
  LABEL                             VALUE 

PSA                               00000003
PSAVE                             00000070
PSSAC0                            00000002
PSSAC1                            00000003
PSSBD0                            00000000
PSSBD1                            00000001
PSTRCON                           0000019D
PULSR                             00000002
PULSS                             00000003
PWM1CON                           0000001C
R                                 00000002
RA0                               00000000
RA1                               00000001
RA2                               00000002
RA3                               00000003
RA4                               00000004
RA5                               00000005
RABIE                             00000003
RABIF                             00000000
RB4                               00000004
RB5                               00000005
RB6                               00000006
RB7                               00000007
RC0                               00000000
RC1                               00000001
RC2                               00000002
RC3                               00000003
RC4                               00000004
RC5                               00000005
RC6                               00000006
RC7                               00000007
RCIDL                             00000006
RCIE                              00000005
RCIF                              00000005
RCREG                             0000001A
RCSTA                             00000018
RD                                00000000
READ_WRITE                        00000002
RP0                               00000005
RP1                               00000006
RX9                               00000006
RX9D                              00000000
R_NOT_W                           00000002
R_W                               00000002
S                                 00000003
SBOREN                            00000004
SCKP                              00000004
SCS                               00000000
SENB                              00000003
SENDB                             00000003
SMP                               00000007
SPBRG                             00000099
SPBRGH                            0000009A
gpasm-1.4.0 #1107 (May  9 2015) build/default   4-28-2017  14:58:28         PAGE 39


SYMBOL TABLE
  LABEL                             VALUE 

SPEN                              00000007
SR0                               00000006
SR1                               00000007
SRCON                             0000019E
SREN                              00000005
SSAVE                             00000071
SSPADD                            00000093
SSPBUF                            00000013
SSPCON                            00000014
SSPEN                             00000005
SSPIE                             00000003
SSPIF                             00000003
SSPM0                             00000000
SSPM1                             00000001
SSPM2                             00000002
SSPM3                             00000003
SSPMSK                            00000093
SSPOV                             00000006
SSPSTAT                           00000094
STATUS                            00000003
STK00                             0000007F
STK01                             0000007E
STK02                             0000007D
STK03                             0000007C
STK04                             0000007B
STK05                             0000007A
STK06                             00000079
STK07                             00000078
STK08                             00000077
STK09                             00000076
STK10                             00000075
STK11                             00000074
STK12                             00000073
STRA                              00000000
STRB                              00000001
STRC                              00000002
STRD                              00000003
STRSYNC                           00000004
SWDTEN                            00000000
SYNC                              00000004
T0CS                              00000005
T0IE                              00000005
T0IF                              00000002
T0SE                              00000004
T1CKPS0                           00000004
T1CKPS1                           00000005
T1CON                             00000010
T1GINV                            00000007
T1GSS                             00000001
T1IE                              00000000
T1IF                              00000000
T1OSCEN                           00000003
T2CKPS0                           00000000
gpasm-1.4.0 #1107 (May  9 2015) build/default   4-28-2017  14:58:28         PAGE 40


SYMBOL TABLE
  LABEL                             VALUE 

T2CKPS1                           00000001
T2CON                             00000012
T2IE                              00000001
T2IF                              00000001
TMR0                              00000001
TMR1                              0000000E
TMR1CS                            00000001
TMR1GE                            00000006
TMR1H                             0000000F
TMR1IE                            00000000
TMR1IF                            00000000
TMR1L                             0000000E
TMR1ON                            00000000
TMR2                              00000011
TMR2IE                            00000001
TMR2IF                            00000001
TMR2ON                            00000002
TOUTPS0                           00000003
TOUTPS1                           00000004
TOUTPS2                           00000005
TOUTPS3                           00000006
TRISA                             00000085
TRISA0                            00000000
TRISA1                            00000001
TRISA2                            00000002
TRISA3                            00000003
TRISA4                            00000004
TRISA5                            00000005
TRISB                             00000086
TRISB4                            00000004
TRISB5                            00000005
TRISB6                            00000006
TRISB7                            00000007
TRISC                             00000087
TRISC0                            00000000
TRISC1                            00000001
TRISC2                            00000002
TRISC3                            00000003
TRISC4                            00000004
TRISC5                            00000005
TRISC6                            00000006
TRISC7                            00000007
TRMT                              00000001
TUN0                              00000000
TUN1                              00000001
TUN2                              00000002
TUN3                              00000003
TUN4                              00000004
TX9                               00000006
TX9D                              00000000
TXEN                              00000005
TXIE                              00000004
TXIF                              00000004
gpasm-1.4.0 #1107 (May  9 2015) build/default   4-28-2017  14:58:28         PAGE 41


SYMBOL TABLE
  LABEL                             VALUE 

TXREG                             00000019
TXSTA                             00000098
UA                                00000001
ULPWUE                            00000005
VCFG                              00000006
VP6EN                             00000004
VR0                               00000000
VR1                               00000001
VR2                               00000002
VR3                               00000003
VRCON                             00000118
VRR                               00000005
W                                 00000000
WCOL                              00000007
WDTCON                            00000097
WDTPS0                            00000001
WDTPS1                            00000002
WDTPS2                            00000003
WDTPS3                            00000004
WPU                               00000095
WPU0                              00000000
WPU1                              00000001
WPU2                              00000002
WPU4                              00000004
WPU5                              00000005
WPUA                              00000095
WPUA0                             00000000
WPUA1                             00000001
WPUA2                             00000002
WPUA4                             00000004
WPUA5                             00000005
WPUB                              00000115
WPUB4                             00000004
WPUB5                             00000005
WPUB6                             00000006
WPUB7                             00000007
WR                                00000001
WREN                              00000002
WRERR                             00000003
WSAVE                             00000072
WUE                               00000001
Z                                 00000002
_00106_DS_                        00000017
_00108_DS_                        00000065
_00110_DS_                        00000027
_00113_DS_                        0000006B
_00115_DS_                        00000095
_00116_DS_                        000000B0
_00118_DS_                        000000B6
_00139_DS_                        0000005F
_00145_DS_                        000000A5
_00148_DS_                        00000084
_00153_DS_                        0000019A
gpasm-1.4.0 #1107 (May  9 2015) build/default   4-28-2017  14:58:28         PAGE 42


SYMBOL TABLE
  LABEL                             VALUE 

_00158_DS_                        000001E3
_00168_DS_                        0000022C
_00178_DS_                        000002CA
_00183_DS_                        000002E2
_00187_DS_                        00000124
_00189_DS_                        00000014
_00190_DS_                        000000BB
_00191_DS_                        000000C3
_00193_DS_                        0000027A
_00300_DS_                        0000006B
_00301_DS_                        0000008C
_00304_DS_                        00000131
_00305_DS_                        0000013B
_00306_DS_                        00000145
_00307_DS_                        0000014F
_00308_DS_                        00000159
_00309_DS_                        00000163
_00310_DS_                        0000016D
_00311_DS_                        00000177
_00312_DS_                        000001A2
_00313_DS_                        000001AC
_00314_DS_                        000001B6
_00315_DS_                        000001C0
_00316_DS_                        000001EB
_00317_DS_                        000001F5
_00318_DS_                        000001FF
_00319_DS_                        00000209
_00320_DS_                        00000234
_00321_DS_                        0000023E
_00322_DS_                        00000248
_00323_DS_                        00000252
_00332_DS_                        00000027
_00333_DS_                        0000004B
_ADCON0                           00000000
_ADCON0bits                       00000000
_ADCON1                           00000000
_ADCON1bits                       00000000
_ADC_read                         00000000
_ADRESH                           00000000
_ADRESL                           00000000
_ANSEL                            00000000
_ANSELH                           00000000
_ANSELHbits                       00000000
_ANSELbits                        00000000
_BAUDCTL                          00000000
_BAUDCTLbits                      00000000
_BOD_NSLEEP                       00003EFF
_BOD_OFF                          00003CFF
_BOD_ON                           00003FFF
_BOD_SBODEN                       00003DFF
_BOREN_NSLEEP                     00003EFF
_BOREN_OFF                        00003CFF
_BOREN_ON                         00003FFF
gpasm-1.4.0 #1107 (May  9 2015) build/default   4-28-2017  14:58:28         PAGE 43


SYMBOL TABLE
  LABEL                             VALUE 

_BOREN_SBODEN                     00003DFF
_BOR_NSLEEP                       00003EFF
_BOR_OFF                          00003CFF
_BOR_ON                           00003FFF
_BOR_SBODEN                       00003DFF
_CCP1CON                          00000000
_CCP1CONbits                      00000000
_CCPR                             00000000
_CCPR1H                           00000000
_CCPR1L                           00000000
_CM1CON0                          00000000
_CM1CON0bits                      00000000
_CM2CON0                          00000000
_CM2CON0bits                      00000000
_CM2CON1                          00000000
_CM2CON1bits                      00000000
_CONFIG                           00002007
_CPD_OFF                          00003FFF
_CPD_ON                           00003F7F
_CP_OFF                           00003FFF
_CP_ON                            00003FBF
_DEVID1                           00002006
_ECCPAS                           00000000
_ECCPASbits                       00000000
_EC_OSC                           00003FFB
_EEADR                            00000000
_EEADRH                           00000000
_EECON1                           00000000
_EECON1bits                       00000000
_EECON2                           00000000
_EEDAT                            00000000
_EEDATA                           00000000
_EEDATH                           00000000
_EXTRC                            00003FFF
_EXTRCIO                          00003FFE
_EXTRC_OSC_CLKOUT                 00003FFF
_EXTRC_OSC_NOCLKOUT               00003FFE
_FCMEN_OFF                        000037FF
_FCMEN_ON                         00003FFF
_FOSC_EC                          00003FFB
_FOSC_EXTRCCLK                    00003FFF
_FOSC_EXTRCIO                     00003FFE
_FOSC_HS                          00003FFA
_FOSC_INTRCCLK                    00003FFD
_FOSC_INTRCIO                     00003FFC
_FOSC_LP                          00003FF8
_FOSC_XT                          00003FF9
_FSR                              00000000
_HS_OSC                           00003FFA
_IDLOC0                           00002000
_IDLOC1                           00002001
_IDLOC2                           00002002
_IDLOC3                           00002003
gpasm-1.4.0 #1107 (May  9 2015) build/default   4-28-2017  14:58:28         PAGE 44


SYMBOL TABLE
  LABEL                             VALUE 

_IESO_OFF                         00003BFF
_IESO_ON                          00003FFF
_INDF                             00000000
_INTCON                           00000000
_INTCONbits                       00000000
_INTOSC                           00003FFD
_INTOSCIO                         00003FFC
_INTRC_OSC_CLKOUT                 00003FFD
_INTRC_OSC_NOCLKOUT               00003FFC
_IOC                              00000000
_IOCA                             00000000
_IOCAbits                         00000000
_IOCB                             00000000
_IOCBbits                         00000000
_IOCbits                          00000000
_LP_OSC                           00003FF8
_MCLRE_OFF                        00003FDF
_MCLRE_ON                         00003FFF
_MSK                              00000000
_MSKbits                          00000000
_OPTION_REG                       00000000
_OPTION_REGbits                   00000000
_OSCCON                           00000000
_OSCCONbits                       00000000
_OSCTUNE                          00000000
_OSCTUNEbits                      00000000
_PCL                              00000000
_PCLATH                           00000000
_PCON                             00000000
_PCONbits                         00000000
_PIE1                             00000000
_PIE1bits                         00000000
_PIE2                             00000000
_PIE2bits                         00000000
_PIR1                             00000000
_PIR1bits                         00000000
_PIR2                             00000000
_PIR2bits                         00000000
_PORTA                            00000000
_PORTAbits                        00000000
_PORTB                            00000000
_PORTBbits                        00000000
_PORTC                            00000000
_PORTCbits                        00000000
_PR2                              00000000
_PSTRCON                          00000000
_PSTRCONbits                      00000000
_PWM1CON                          00000000
_PWM1CONbits                      00000000
_PWRTE_OFF                        00003FFF
_PWRTE_ON                         00003FEF
_RCREG                            00000000
_RCSTA                            00000000
gpasm-1.4.0 #1107 (May  9 2015) build/default   4-28-2017  14:58:28         PAGE 45


SYMBOL TABLE
  LABEL                             VALUE 

_RCSTAbits                        00000000
_RecAddress                       00000000
_SPBRG                            00000000
_SPBRGH                           00000000
_SPBRGHbits                       00000000
_SPBRGbits                        00000000
_SP_send                          00000000
_SP_send_buf                      00000000
_SRCON                            00000000
_SRCONbits                        00000000
_SSPADD                           00000000
_SSPBUF                           00000000
_SSPCON                           00000000
_SSPCONbits                       00000000
_SSPMSK                           00000000
_SSPMSKbits                       00000000
_SSPSTAT                          00000000
_SSPSTATbits                      00000000
_STATUS                           00000000
_STATUSbits                       00000000
_S_main__circBufPush_0022         00000022
_S_main__main_0002                00000002
_S_main__main_0010                00000010
_S_main__main_001D                0000001D
_S_main__main_0030                00000030
_S_main__main_003A                0000003A
_S_main__main_004A                0000004A
_S_main__main_0052                00000052
_S_main__main_0062                00000062
_S_main__main_00D2                000000D2
_S_main__main_00DC                000000DC
_S_main__main_00EC                000000EC
_S_main__main_010C                0000010C
_S_main__main_011C                0000011C
_S_main__main_0263                00000263
_S_main__main_02C4                000002C4
_SetAddress                       00000000
_T1CON                            00000000
_T1CONbits                        00000000
_T2CON                            00000000
_T2CONbits                        00000000
_TMR0                             00000000
_TMR1                             00000000
_TMR1H                            00000000
_TMR1L                            00000000
_TMR2                             00000000
_TRISA                            00000000
_TRISAbits                        00000000
_TRISB                            00000000
_TRISBbits                        00000000
_TRISC                            00000000
_TRISCbits                        00000000
_TXREG                            00000000
gpasm-1.4.0 #1107 (May  9 2015) build/default   4-28-2017  14:58:28         PAGE 46


SYMBOL TABLE
  LABEL                             VALUE 

_TXSTA                            00000000
_TXSTAbits                        00000000
_VRCON                            00000000
_VRCONbits                        00000000
_WDTCON                           00000000
_WDTCONbits                       00000000
_WDTE_OFF                         00003FF7
_WDTE_ON                          00003FFF
_WDT_OFF                          00003FF7
_WDT_ON                           00003FFF
_WPU                              00000000
_WPUA                             00000000
_WPUAbits                         00000000
_WPUB                             00000000
_WPUBbits                         00000000
_WPUbits                          00000000
_XT_OSC                           00003FF9
__16F690                          00000001
__CODE_END                        00000FFF
__CODE_START                      00000000
__COMMON_RAM_END                  0000007F
__COMMON_RAM_START                00000070
__EEPROM_END                      000021FF
__EEPROM_START                    00002100
__VECTOR_INT                      00000004
__VECTOR_RESET                    00000000
___sdcc_saved_fsr                 00000000
__sdcc_gsinit_startup             00000000
__sdcc_interrupt                  00000004
_bitfield                         00000000
_buf                              00000000
_buf_err                          00000000
_buf_head                         00000000
_buf_tail                         00000000
_circBufPush                      00000000
_dec_to_ascii_buf                 00000000
_delay_ms                         00000000
_enter                            00000000
_init                             00000000
_int_err                          00000000
_int_error_cnt                    00000000
_light                            00000000
_main                             00000000
_pie1                             00000000
_pie2                             00000000
_pir1                             00000000
_pir2                             00000000
_receive_intr                     00000004
_space                            00000000
_strV0                            00000000
_strV1                            00000000
_strVF                            00000000
_stri                             00000000
gpasm-1.4.0 #1107 (May  9 2015) build/default   4-28-2017  14:58:28         PAGE 47


SYMBOL TABLE
  LABEL                             VALUE 

_strt                             00000000
_strt1                            00000000
_strw                             00000000
_strw1                            00000000
_sync                             00000000
_t                                00000000
_t1                               00000000
_tab                              00000000
_tim0_owf                         00000000
_uint8_send                       00000000
_w                                00000000
_w1                               00000000
r0x103D                           00000009
r0x103E                           0000000A
r0x103F                           0000000C
r0x1040                           0000000B
r0x1041                           0000000D
r0x1042                           00000002
r0x1043                           00000003
r0x1044                           00000004
r0x1045                           00000006
r0x1046                           00000005
r0x1047                           00000007
r0x1048                           00000008
r0x104A                           00000000
r0x104B                           00000001

Errors   :     0
Warnings :     0 reported,     0 suppressed
Messages :     0 reported,     0 suppressed

