gpasm-1.4.0 #1107 (May  9 2015) build/default   1-10-2017  21:38:28         PAGE  1


LOC    OBJECT CODE    LINE  SOURCE TEXT
  VALUE

                      00001 ;--------------------------------------------------------
                      00002 ; File Created by SDCC : free open source ANSI-C Compiler
                      00003 ; Version 3.6.0 #9615 (Linux)
                      00004 ;--------------------------------------------------------
                      00005 ; PIC port for the 14-bit core
                      00006 ;--------------------------------------------------------
                      00007 ;       .file   "main.c"
                      00008         list    p=16f690
                      00009         radix dec
                      00010         include "p16f690.inc"
                      00001         LIST
                      00002 
                      00003 ;==========================================================================
                      00004 ; Build date : Aug 07 2014
                      00005 ;  MPASM PIC16F690 processor include
                      00006 ; 
                      00007 ;  (c) Copyright 1999-2014 Microchip Technology, All rights reserved
                      00008 ;==========================================================================
                      00009 
                      00757         LIST
                      00011 ;--------------------------------------------------------
                      00012 ; config word(s)
                      00013 ;--------------------------------------------------------
2007   0000           00014         __config 0x3fd4
                      00015 ;--------------------------------------------------------
                      00016 ; external declarations
                      00017 ;--------------------------------------------------------
  0000                00018         extern  _init
  0000                00019         extern  _puint8_to_ascii
  0000                00020         extern  _SP_send_errorP
  0000                00021         extern  __moduint
  0000                00022         extern  __divuint
  0000                00023         extern  _STATUSbits
  0000                00024         extern  _PORTAbits
  0000                00025         extern  _PORTBbits
  0000                00026         extern  _PORTCbits
  0000                00027         extern  _INTCONbits
  0000                00028         extern  _PIR1bits
  0000                00029         extern  _PIR2bits
  0000                00030         extern  _T1CONbits
  0000                00031         extern  _T2CONbits
  0000                00032         extern  _SSPCONbits
  0000                00033         extern  _CCP1CONbits
  0000                00034         extern  _RCSTAbits
  0000                00035         extern  _PWM1CONbits
  0000                00036         extern  _ECCPASbits
  0000                00037         extern  _ADCON0bits
  0000                00038         extern  _OPTION_REGbits
  0000                00039         extern  _TRISAbits
  0000                00040         extern  _TRISBbits
  0000                00041         extern  _TRISCbits
  0000                00042         extern  _PIE1bits
  0000                00043         extern  _PIE2bits
gpasm-1.4.0 #1107 (May  9 2015) build/default   1-10-2017  21:38:28         PAGE  2


LOC    OBJECT CODE    LINE  SOURCE TEXT
  VALUE

  0000                00044         extern  _PCONbits
  0000                00045         extern  _OSCCONbits
  0000                00046         extern  _OSCTUNEbits
  0000                00047         extern  _MSKbits
  0000                00048         extern  _SSPMSKbits
  0000                00049         extern  _SSPSTATbits
  0000                00050         extern  _WPUbits
  0000                00051         extern  _WPUAbits
  0000                00052         extern  _IOCbits
  0000                00053         extern  _IOCAbits
  0000                00054         extern  _WDTCONbits
  0000                00055         extern  _TXSTAbits
  0000                00056         extern  _SPBRGbits
  0000                00057         extern  _SPBRGHbits
  0000                00058         extern  _BAUDCTLbits
  0000                00059         extern  _ADCON1bits
  0000                00060         extern  _WPUBbits
  0000                00061         extern  _IOCBbits
  0000                00062         extern  _VRCONbits
  0000                00063         extern  _CM1CON0bits
  0000                00064         extern  _CM2CON0bits
  0000                00065         extern  _CM2CON1bits
  0000                00066         extern  _ANSELbits
  0000                00067         extern  _ANSELHbits
  0000                00068         extern  _EECON1bits
  0000                00069         extern  _PSTRCONbits
  0000                00070         extern  _SRCONbits
  0000                00071         extern  _INDF
  0000                00072         extern  _TMR0
  0000                00073         extern  _PCL
  0000                00074         extern  _STATUS
  0000                00075         extern  _FSR
  0000                00076         extern  _PORTA
  0000                00077         extern  _PORTB
  0000                00078         extern  _PORTC
  0000                00079         extern  _PCLATH
  0000                00080         extern  _INTCON
  0000                00081         extern  _PIR1
  0000                00082         extern  _PIR2
  0000                00083         extern  _TMR1
  0000                00084         extern  _TMR1L
  0000                00085         extern  _TMR1H
  0000                00086         extern  _T1CON
  0000                00087         extern  _TMR2
  0000                00088         extern  _T2CON
  0000                00089         extern  _SSPBUF
  0000                00090         extern  _SSPCON
  0000                00091         extern  _CCPR
  0000                00092         extern  _CCPR1L
  0000                00093         extern  _CCPR1H
  0000                00094         extern  _CCP1CON
  0000                00095         extern  _RCSTA
  0000                00096         extern  _TXREG
gpasm-1.4.0 #1107 (May  9 2015) build/default   1-10-2017  21:38:28         PAGE  3


LOC    OBJECT CODE    LINE  SOURCE TEXT
  VALUE

  0000                00097         extern  _RCREG
  0000                00098         extern  _PWM1CON
  0000                00099         extern  _ECCPAS
  0000                00100         extern  _ADRESH
  0000                00101         extern  _ADCON0
  0000                00102         extern  _OPTION_REG
  0000                00103         extern  _TRISA
  0000                00104         extern  _TRISB
  0000                00105         extern  _TRISC
  0000                00106         extern  _PIE1
  0000                00107         extern  _PIE2
  0000                00108         extern  _PCON
  0000                00109         extern  _OSCCON
  0000                00110         extern  _OSCTUNE
  0000                00111         extern  _PR2
  0000                00112         extern  _MSK
  0000                00113         extern  _SSPADD
  0000                00114         extern  _SSPMSK
  0000                00115         extern  _SSPSTAT
  0000                00116         extern  _WPU
  0000                00117         extern  _WPUA
  0000                00118         extern  _IOC
  0000                00119         extern  _IOCA
  0000                00120         extern  _WDTCON
  0000                00121         extern  _TXSTA
  0000                00122         extern  _SPBRG
  0000                00123         extern  _SPBRGH
  0000                00124         extern  _BAUDCTL
  0000                00125         extern  _ADRESL
  0000                00126         extern  _ADCON1
  0000                00127         extern  _EEDAT
  0000                00128         extern  _EEDATA
  0000                00129         extern  _EEADR
  0000                00130         extern  _EEDATH
  0000                00131         extern  _EEADRH
  0000                00132         extern  _WPUB
  0000                00133         extern  _IOCB
  0000                00134         extern  _VRCON
  0000                00135         extern  _CM1CON0
  0000                00136         extern  _CM2CON0
  0000                00137         extern  _CM2CON1
  0000                00138         extern  _ANSEL
  0000                00139         extern  _ANSELH
  0000                00140         extern  _EECON1
  0000                00141         extern  _EECON2
  0000                00142         extern  _PSTRCON
  0000                00143         extern  _SRCON
  0000                00144         extern  ___sdcc_saved_fsr
  0000                00145         extern  __mulchar
  0000                00146         extern  __moduchar
  0000                00147         extern  __divuchar
  0000                00148         extern  __gptrget1
  0000                00149         extern  __sdcc_gsinit_startup
gpasm-1.4.0 #1107 (May  9 2015) build/default   1-10-2017  21:38:28         PAGE  4


LOC    OBJECT CODE    LINE  SOURCE TEXT
  VALUE

                      00150 ;--------------------------------------------------------
                      00151 ; global declarations
                      00152 ;--------------------------------------------------------
  0000                00153         global  _SP_send_error
  0000                00154         global  _SP_send
  0000                00155         global  _uint8_to_ascii
  0000                00156         global  _dec_to_ascii
  0000                00157         global  _circBufPush
  0000                00158         global  _receive_intr
  0000                00159         global  _main
  0000                00160         global  _bitfield
  0000                00161         global  _w
  0000                00162         global  _t
  0000                00163         global  _w1
  0000                00164         global  _t1
  0000                00165         global  _bw
  0000                00166         global  _bt
  0000                00167         global  _buf
  0000                00168         global  _buf_head
  0000                00169         global  _buf_tail
  0000                00170         global  _int_error_cnt
  0000                00171         global  _t2
  0000                00172         global  _w2
  0000                00173         global  _strV0
  0000                00174         global  _strV1
  0000                00175         global  _strVF
  0000                00176         global  _strw
  0000                00177         global  _strt
  0000                00178         global  _strw1
  0000                00179         global  _strt1
  0000                00180         global  _tab
  0000                00181         global  _enter
  0000                00182         global  _sync
  0000                00183         global  _int_err
  0000                00184         global  _buf_err
  0000                00185         global  _pir1
  0000                00186         global  _pir2
  0000                00187         global  _pie1
  0000                00188         global  _pie2
                      00189 
  0000                00190         global PSAVE
  0000                00191         global SSAVE
  0000                00192         global WSAVE
  0000                00193         global STK12
  0000                00194         global STK11
  0000                00195         global STK10
  0000                00196         global STK09
  0000                00197         global STK08
  0000                00198         global STK07
  0000                00199         global STK06
  0000                00200         global STK05
  0000                00201         global STK04
  0000                00202         global STK03
gpasm-1.4.0 #1107 (May  9 2015) build/default   1-10-2017  21:38:28         PAGE  5


LOC    OBJECT CODE    LINE  SOURCE TEXT
  VALUE

  0000                00203         global STK02
  0000                00204         global STK01
  0000                00205         global STK00
                      00206 
                      00207 sharebank udata_ovr 0x0070
0070                  00208 PSAVE   res 1
0071                  00209 SSAVE   res 1
0072                  00210 WSAVE   res 1
0073                  00211 STK12   res 1
0074                  00212 STK11   res 1
0075                  00213 STK10   res 1
0076                  00214 STK09   res 1
0077                  00215 STK08   res 1
0078                  00216 STK07   res 1
0079                  00217 STK06   res 1
007A                  00218 STK05   res 1
007B                  00219 STK04   res 1
007C                  00220 STK03   res 1
007D                  00221 STK02   res 1
007E                  00222 STK01   res 1
007F                  00223 STK00   res 1
                      00224 
                      00225 ;--------------------------------------------------------
                      00226 ; global definitions
                      00227 ;--------------------------------------------------------
                      00228 UD_main_0       udata
0000                  00229 _bitfield       res     1
                      00230 
                      00231 UD_main_1       udata
0000                  00232 _bw     res     20
                      00233 
                      00234 UD_main_2       udata
0000                  00235 _bt     res     20
                      00236 
                      00237 UD_main_3       udata
0000                  00238 _buf    res     16
                      00239 
                      00240 ;--------------------------------------------------------
                      00241 ; absolute symbol definitions
                      00242 ;--------------------------------------------------------
                      00243 ;--------------------------------------------------------
                      00244 ; compiler-defined variables
                      00245 ;--------------------------------------------------------
                      00246 UDL_main_0      udata
0000                  00247 r0x107A res     1
0001                  00248 r0x107B res     1
0002                  00249 r0x1071 res     1
0003                  00250 r0x1072 res     1
0004                  00251 r0x1074 res     1
0005                  00252 r0x1073 res     1
0006                  00253 r0x1075 res     1
0007                  00254 r0x1076 res     1
0008                  00255 r0x1077 res     1
gpasm-1.4.0 #1107 (May  9 2015) build/default   1-10-2017  21:38:28         PAGE  6


LOC    OBJECT CODE    LINE  SOURCE TEXT
  VALUE

0009                  00256 r0x1078 res     1
000A                  00257 r0x1079 res     1
000B                  00258 r0x1057 res     1
000C                  00259 r0x1058 res     1
000D                  00260 r0x105A res     1
000E                  00261 r0x1059 res     1
000F                  00262 r0x105B res     1
0010                  00263 r0x106A res     1
0011                  00264 r0x1069 res     1
0012                  00265 r0x106B res     1
0013                  00266 r0x106C res     1
0014                  00267 r0x106D res     1
0015                  00268 r0x1070 res     1
0016                  00269 r0x1064 res     1
0017                  00270 r0x1065 res     1
0018                  00271 r0x1066 res     1
0019                  00272 r0x1067 res     1
001A                  00273 r0x1068 res     1
001B                  00274 r0x105E res     1
001C                  00275 r0x105D res     1
001D                  00276 r0x105C res     1
001E                  00277 r0x105F res     1
001F                  00278 r0x1060 res     1
0020                  00279 r0x1061 res     1
0021                  00280 r0x1062 res     1
0022                  00281 r0x1063 res     1
0023                  00282 r0x1051 res     1
0024                  00283 r0x1050 res     1
0025                  00284 r0x104F res     1
0026                  00285 r0x1052 res     1
0027                  00286 r0x1053 res     1
0028                  00287 r0x1054 res     1
0029                  00288 r0x1055 res     1
002A                  00289 r0x1056 res     1
002B                  00290 _dec_to_ascii_number_1_30       res     4
002F                  00291 _uint8_to_ascii_number_1_34     res     4
                      00292 ;--------------------------------------------------------
                      00293 ; initialized data
                      00294 ;--------------------------------------------------------
                      00295 
                      00296 ID_main_0       idata
0000                  00297 _w
0000   00 00          00298         db      0x00, 0x00
                      00299 
                      00300 
                      00301 ID_main_1       idata
0000                  00302 _t
0000   00 00          00303         db      0x00, 0x00
                      00304 
                      00305 
                      00306 ID_main_2       idata
0000                  00307 _w1
0000   00 00          00308         db      0x00, 0x00
gpasm-1.4.0 #1107 (May  9 2015) build/default   1-10-2017  21:38:28         PAGE  7


LOC    OBJECT CODE    LINE  SOURCE TEXT
  VALUE

                      00309 
                      00310 
                      00311 ID_main_3       idata
0000                  00312 _t1
0000   00 00          00313         db      0x00, 0x00
                      00314 
                      00315 
                      00316 ID_main_4       idata
0000                  00317 _buf_head
0000   00             00318         db      0x00
                      00319 
                      00320 
                      00321 ID_main_5       idata
0000                  00322 _buf_tail
0000   00             00323         db      0x00
                      00324 
                      00325 
                      00326 ID_main_6       idata
0000                  00327 _int_error_cnt
0000   00             00328         db      0x00
                      00329 
                      00330 
                      00331 ID_main_7       idata
0000                  00332 _t2
0000   00             00333         db      0x00
                      00334 
                      00335 
                      00336 ID_main_8       idata
0000                  00337 _w2
0000   00             00338         db      0x00
                      00339 
                      00340 
                      00341 ID_main_9       code
0000                  00342 _strV0
0000   3430           00343         retlw 0x30
0001   3420           00344         retlw 0x20
0002   340A           00345         retlw 0x0a
0003   3400           00346         retlw 0x00
                      00347 
                      00348 
                      00349 ID_main_10      code
0000                  00350 _strV1
0000   3431           00351         retlw 0x31
0001   3420           00352         retlw 0x20
0002   340A           00353         retlw 0x0a
0003   3400           00354         retlw 0x00
                      00355 
                      00356 
                      00357 ID_main_11      code
0000                  00358 _strVF
0000   3446           00359         retlw 0x46
0001   3420           00360         retlw 0x20
0002   340A           00361         retlw 0x0a
gpasm-1.4.0 #1107 (May  9 2015) build/default   1-10-2017  21:38:28         PAGE  8


LOC    OBJECT CODE    LINE  SOURCE TEXT
  VALUE

0003   3400           00362         retlw 0x00
                      00363 
                      00364 
                      00365 ID_main_12      code
0000                  00366 _strw
0000   3477           00367         retlw 0x77
0001   343A           00368         retlw 0x3a
0002   3420           00369         retlw 0x20
0003   3400           00370         retlw 0x00
                      00371 
                      00372 
                      00373 ID_main_13      code
0000                  00374 _strt
0000   3474           00375         retlw 0x74
0001   343A           00376         retlw 0x3a
0002   3420           00377         retlw 0x20
0003   3400           00378         retlw 0x00
                      00379 
                      00380 
                      00381 ID_main_14      code
0000                  00382 _strw1
0000   3477           00383         retlw 0x77
0001   3431           00384         retlw 0x31
0002   343A           00385         retlw 0x3a
0003   3420           00386         retlw 0x20
0004   3400           00387         retlw 0x00
                      00388 
                      00389 
                      00390 ID_main_15      code
0000                  00391 _strt1
0000   3474           00392         retlw 0x74
0001   3431           00393         retlw 0x31
0002   343A           00394         retlw 0x3a
0003   3420           00395         retlw 0x20
0004   3400           00396         retlw 0x00
                      00397 
                      00398 
                      00399 ID_main_16      code
0000                  00400 _tab
0000   3409           00401         retlw 0x09
0001   3400           00402         retlw 0x00
                      00403 
                      00404 
                      00405 ID_main_17      code
0000                  00406 _enter
0000   340A           00407         retlw 0x0a
0001   3400           00408         retlw 0x00
                      00409 
                      00410 
                      00411 ID_main_18      code
0000                  00412 _sync
0000   3453           00413         retlw 0x53
0001   3459           00414         retlw 0x59
gpasm-1.4.0 #1107 (May  9 2015) build/default   1-10-2017  21:38:28         PAGE  9


LOC    OBJECT CODE    LINE  SOURCE TEXT
  VALUE

0002   344E           00415         retlw 0x4e
0003   3443           00416         retlw 0x43
0004   340A           00417         retlw 0x0a
0005   3400           00418         retlw 0x00
                      00419 
                      00420 
                      00421 ID_main_19      code
0000                  00422 _int_err
0000   3449           00423         retlw 0x49
0001   344E           00424         retlw 0x4e
0002   3454           00425         retlw 0x54
0003   3420           00426         retlw 0x20
0004   3445           00427         retlw 0x45
0005   3452           00428         retlw 0x52
0006   3452           00429         retlw 0x52
0007   340A           00430         retlw 0x0a
0008   3400           00431         retlw 0x00
                      00432 
                      00433 
                      00434 ID_main_20      code
0000                  00435 _buf_err
0000   3442           00436         retlw 0x42
0001   3455           00437         retlw 0x55
0002   3446           00438         retlw 0x46
0003   3446           00439         retlw 0x46
0004   3445           00440         retlw 0x45
0005   3452           00441         retlw 0x52
0006   3420           00442         retlw 0x20
0007   344F           00443         retlw 0x4f
0008   3457           00444         retlw 0x57
0009   3445           00445         retlw 0x45
000A   3452           00446         retlw 0x52
000B   3446           00447         retlw 0x46
000C   344C           00448         retlw 0x4c
000D   344F           00449         retlw 0x4f
000E   3457           00450         retlw 0x57
000F   340A           00451         retlw 0x0a
0010   3400           00452         retlw 0x00
                      00453 
                      00454 
                      00455 ID_main_21      code
0000                  00456 _pir1
0000   3450           00457         retlw 0x50
0001   3449           00458         retlw 0x49
0002   3452           00459         retlw 0x52
0003   3431           00460         retlw 0x31
0004   343A           00461         retlw 0x3a
0005   3420           00462         retlw 0x20
0006   3400           00463         retlw 0x00
                      00464 
                      00465 
                      00466 ID_main_22      code
0000                  00467 _pir2
gpasm-1.4.0 #1107 (May  9 2015) build/default   1-10-2017  21:38:28         PAGE 10


LOC    OBJECT CODE    LINE  SOURCE TEXT
  VALUE

0000   3450           00468         retlw 0x50
0001   3449           00469         retlw 0x49
0002   3452           00470         retlw 0x52
0003   3432           00471         retlw 0x32
0004   343A           00472         retlw 0x3a
0005   3420           00473         retlw 0x20
0006   3400           00474         retlw 0x00
                      00475 
                      00476 
                      00477 ID_main_23      code
0000                  00478 _pie1
0000   3450           00479         retlw 0x50
0001   3449           00480         retlw 0x49
0002   3445           00481         retlw 0x45
0003   3431           00482         retlw 0x31
0004   343A           00483         retlw 0x3a
0005   3420           00484         retlw 0x20
0006   3400           00485         retlw 0x00
                      00486 
                      00487 
                      00488 ID_main_24      code
0000                  00489 _pie2
0000   3450           00490         retlw 0x50
0001   3449           00491         retlw 0x49
0002   3445           00492         retlw 0x45
0003   3432           00493         retlw 0x32
0004   343A           00494         retlw 0x3a
0005   3420           00495         retlw 0x20
0006   3400           00496         retlw 0x00
                      00497 
                      00498 ;--------------------------------------------------------
                      00499 ; overlayable items in internal ram 
                      00500 ;--------------------------------------------------------
                      00501 ;       udata_ovr
                      00502 ;--------------------------------------------------------
                      00503 ; reset vector 
                      00504 ;--------------------------------------------------------
                      00505 STARTUP code 0x0000
0000   0000           00506         nop
0001   ????           00507         pagesel __sdcc_gsinit_startup
0002   2???           00508         goto    __sdcc_gsinit_startup
                      00509 ;--------------------------------------------------------
                      00510 ; interrupt and initialization code
                      00511 ;--------------------------------------------------------
                      00512 c_interrupt     code    0x0004
0004                  00513 __sdcc_interrupt:
                      00514 ;***
                      00515 ;  pBlock Stats: dbName = I
                      00516 ;***
                      00517 ;2 compiler assigned registers:
                      00518 ;   r0x107A
                      00519 ;   r0x107B
                      00520 ;; Starting pCode block
gpasm-1.4.0 #1107 (May  9 2015) build/default   1-10-2017  21:38:28         PAGE 11


LOC    OBJECT CODE    LINE  SOURCE TEXT
  VALUE

0004                  00521 _receive_intr:
                      00522 ; 0 exit points
                      00523 ;       .line   97; "main.c"    void receive_intr() __interrupt 0 {
0004   00??           00524         MOVWF   WSAVE
0005   0E03           00525         SWAPF   STATUS,W
0006   0183           00526         CLRF    STATUS
0007   00??           00527         MOVWF   SSAVE
0008   080A           00528         MOVF    PCLATH,W
0009   018A           00529         CLRF    PCLATH
000A   00??           00530         MOVWF   PSAVE
000B   0804           00531         MOVF    FSR,W
000C   ???? ????      00532         BANKSEL ___sdcc_saved_fsr
000E   00??           00533         MOVWF   ___sdcc_saved_fsr
                      00534 ;       .line   99; "main.c"    if(TXIF){
000F   ???? ????      00535         BANKSEL _PIR1bits
0011   1E??           00536         BTFSS   _PIR1bits,4
0012   2???           00537         GOTO    _00111_DS_
                      00538 ;       .line   101; "main.c"   if (buf_head == buf_tail){
0013   ???? ????      00539         BANKSEL _buf_tail
0015   08??           00540         MOVF    _buf_tail,W
0016   ???? ????      00541         BANKSEL _buf_head
0018   06??           00542         XORWF   _buf_head,W
0019   1D03           00543         BTFSS   STATUS,2
001A   2???           00544         GOTO    _00108_DS_
                      00545 ;       .line   102; "main.c"   TXIE = 0;
001B   ???? ????      00546         BANKSEL _PIE1bits
001D   12??           00547         BCF     _PIE1bits,4
001E   2???           00548         GOTO    _00111_DS_
001F                  00549 _00108_DS_:
                      00550 ;       .line   107; "main.c"   TXREG = buf[buf_tail];
001F   ???? ????      00551         BANKSEL _buf_tail
0021   08??           00552         MOVF    _buf_tail,W
0022   3E??           00553         ADDLW   (_buf + 0)
0023   ???? ????      00554         BANKSEL r0x107A
0025   00??           00555         MOVWF   r0x107A
0026   30??           00556         MOVLW   high (_buf + 0)
0027   1803           00557         BTFSC   STATUS,0
0028   3E01           00558         ADDLW   0x01
0029   00??           00559         MOVWF   r0x107B
002A   08??           00560         MOVF    r0x107A,W
002B   1283 1303      00561         BANKSEL FSR
002D   0084           00562         MOVWF   FSR
002E   1383           00563         BCF     STATUS,7
002F   ???? ????      00564         BANKSEL r0x107B
0031   18??           00565         BTFSC   r0x107B,0
0032   1783           00566         BSF     STATUS,7
0033   1283 1303      00567         BANKSEL INDF
0035   0800           00568         MOVF    INDF,W
0036   00??           00569         MOVWF   _TXREG
                      00570 ;       .line   108; "main.c"   buf[buf_tail] = 0;  // clear the data (optional)
0037   ???? ????      00571         BANKSEL r0x107A
0039   08??           00572         MOVF    r0x107A,W
003A   1283 1303      00573         BANKSEL FSR
gpasm-1.4.0 #1107 (May  9 2015) build/default   1-10-2017  21:38:28         PAGE 12


LOC    OBJECT CODE    LINE  SOURCE TEXT
  VALUE

003C   0084           00574         MOVWF   FSR
003D   1383           00575         BCF     STATUS,7
003E   ???? ????      00576         BANKSEL r0x107B
0040   18??           00577         BTFSC   r0x107B,0
0041   1783           00578         BSF     STATUS,7
0042   3000           00579         MOVLW   0x00
0043   1283 1303      00580         BANKSEL INDF
0045   0080           00581         MOVWF   INDF
                      00582 ;       .line   110; "main.c"   next = buf_tail + 1;
0046   ???? ????      00583         BANKSEL _buf_tail
0048   08??           00584         MOVF    _buf_tail,W
0049   ???? ????      00585         BANKSEL r0x107A
004B   00??           00586         MOVWF   r0x107A
004C   01??           00587         CLRF    r0x107B
004D   0A??           00588         INCF    r0x107A,F
004E   1903           00589         BTFSC   STATUS,2
004F   0A??           00590         INCF    r0x107B,F
                      00591 ;;signed compare: left < lit(0x10=16), size=2, mask=ffff
                      00592 ;       .line   111; "main.c"   if(next >= BUF_SIZE)
0050   08??           00593         MOVF    r0x107B,W
0051   3E80           00594         ADDLW   0x80
0052   3E80           00595         ADDLW   0x80
0053   1D03           00596         BTFSS   STATUS,2
0054   2???           00597         GOTO    _00134_DS_
0055   3010           00598         MOVLW   0x10
0056   02??           00599         SUBWF   r0x107A,W
0057                  00600 _00134_DS_:
0057   1C03           00601         BTFSS   STATUS,0
0058   2???           00602         GOTO    _00106_DS_
                      00603 ;;genSkipc:3257: created from rifx:0x7ffe804773d0
                      00604 ;       .line   112; "main.c"   next = 0;
0059   ???? ????      00605         BANKSEL r0x107A
005B   01??           00606         CLRF    r0x107A
005C   01??           00607         CLRF    r0x107B
005D                  00608 _00106_DS_:
                      00609 ;       .line   114; "main.c"   buf_tail = next;
005D   ???? ????      00610         BANKSEL r0x107A
005F   08??           00611         MOVF    r0x107A,W
0060   ???? ????      00612         BANKSEL _buf_tail
0062   00??           00613         MOVWF   _buf_tail
0063                  00614 _00111_DS_:
                      00615 ;       .line   120; "main.c"   if(CCP1IF){
0063   ???? ????      00616         BANKSEL _PIR1bits
0065   1D??           00617         BTFSS   _PIR1bits,2
0066   2???           00618         GOTO    _00117_DS_
                      00619 ;       .line   121; "main.c"   CCP1IE = FALSE;
0067   ???? ????      00620         BANKSEL _PIE1bits
0069   11??           00621         BCF     _PIE1bits,2
                      00622 ;       .line   123; "main.c"   if(CCP1M0){                     // if ECCP mode is Rising edge CCP1M0
006A   ???? ????      00623         BANKSEL _CCP1CONbits
006C   1C??           00624         BTFSS   _CCP1CONbits,0
006D   2???           00625         GOTO    _00113_DS_
                      00626 ;       .line   124; "main.c"   CCP1M0 = FALING;                 // set falling edge
gpasm-1.4.0 #1107 (May  9 2015) build/default   1-10-2017  21:38:28         PAGE 13


LOC    OBJECT CODE    LINE  SOURCE TEXT
  VALUE

006E   10??           00627         BCF     _CCP1CONbits,0
                      00628 ;       .line   127; "main.c"   TMR1H = 0;
006F   01??           00629         CLRF    _TMR1H
                      00630 ;       .line   128; "main.c"   TMR1L = 0;
0070   01??           00631         CLRF    _TMR1L
                      00632 ;       .line   130; "main.c"   t = 0x0000 | CCPR1H;        //ECCP result higher 8 bits
0071   08??           00633         MOVF    _CCPR1H,W
0072   ???? ????      00634         BANKSEL r0x107A
0074   00??           00635         MOVWF   r0x107A
0075   ???? ????      00636         BANKSEL _t
0077   00??           00637         MOVWF   _t
0078   01??           00638         CLRF    (_t + 1)
                      00639 ;       .line   131; "main.c"   t = t << 8;
0079   08??           00640         MOVF    _t,W
007A   00??           00641         MOVWF   (_t + 1)
007B   01??           00642         CLRF    _t
                      00643 ;       .line   132; "main.c"   t = t | CCPR1L;             //ECCP combined 16 bit number formation*/
007C   ???? ????      00644         BANKSEL _CCPR1L
007E   08??           00645         MOVF    _CCPR1L,W
007F   ???? ????      00646         BANKSEL r0x107A
0081   00??           00647         MOVWF   r0x107A
0082   01??           00648         CLRF    r0x107B
0083   08??           00649         MOVF    r0x107A,W
0084   ???? ????      00650         BANKSEL _t
0086   04??           00651         IORWF   _t,F
0087   3000           00652         MOVLW   0x00
0088   04??           00653         IORWF   (_t + 1),F
                      00654 ;       .line   134; "main.c"   bitfield.Capture = TRUE;
0089   ???? ????      00655         BANKSEL _bitfield
008B   14??           00656         BSF     _bitfield,0
008C   2???           00657         GOTO    _00114_DS_
008D                  00658 _00113_DS_:
                      00659 ;       .line   137; "main.c"   CCP1M0 = RISING;
008D   ???? ????      00660         BANKSEL _CCP1CONbits
008F   14??           00661         BSF     _CCP1CONbits,0
                      00662 ;       .line   139; "main.c"   w = 0x0000 | CCPR1H;        //ECCP result higher 8 bits
0090   08??           00663         MOVF    _CCPR1H,W
0091   ???? ????      00664         BANKSEL r0x107A
0093   00??           00665         MOVWF   r0x107A
0094   ???? ????      00666         BANKSEL _w
0096   00??           00667         MOVWF   _w
0097   01??           00668         CLRF    (_w + 1)
                      00669 ;       .line   140; "main.c"   w = w << 8;
0098   08??           00670         MOVF    _w,W
0099   00??           00671         MOVWF   (_w + 1)
009A   01??           00672         CLRF    _w
                      00673 ;       .line   141; "main.c"   w = w | CCPR1L;             //ECCP combined 16 bit number formation
009B   ???? ????      00674         BANKSEL _CCPR1L
009D   08??           00675         MOVF    _CCPR1L,W
009E   ???? ????      00676         BANKSEL r0x107A
00A0   00??           00677         MOVWF   r0x107A
00A1   01??           00678         CLRF    r0x107B
00A2   08??           00679         MOVF    r0x107A,W
gpasm-1.4.0 #1107 (May  9 2015) build/default   1-10-2017  21:38:28         PAGE 14


LOC    OBJECT CODE    LINE  SOURCE TEXT
  VALUE

00A3   ???? ????      00680         BANKSEL _w
00A5   04??           00681         IORWF   _w,F
00A6   3000           00682         MOVLW   0x00
00A7   04??           00683         IORWF   (_w + 1),F
00A8                  00684 _00114_DS_:
                      00685 ;       .line   145; "main.c"   CCP1IE = 1;
00A8   ???? ????      00686         BANKSEL _PIE1bits
00AA   15??           00687         BSF     _PIE1bits,2
                      00688 ;       .line   146; "main.c"   CCP1IF = 0;                     //Clear interrupt flag
00AB   ???? ????      00689         BANKSEL _PIR1bits
00AD   11??           00690         BCF     _PIR1bits,2
00AE                  00691 _00117_DS_:
00AE   ???? ????      00692         BANKSEL ___sdcc_saved_fsr
00B0   08??           00693         MOVF    ___sdcc_saved_fsr,W
00B1   1283 1303      00694         BANKSEL FSR
00B3   0084           00695         MOVWF   FSR
00B4   08??           00696         MOVF    PSAVE,W
00B5   008A           00697         MOVWF   PCLATH
00B6   0183           00698         CLRF    STATUS
00B7   0E??           00699         SWAPF   SSAVE,W
00B8   0083           00700         MOVWF   STATUS
00B9   0E??           00701         SWAPF   WSAVE,F
00BA   0E??           00702         SWAPF   WSAVE,W
00BB                  00703 END_OF_INTERRUPT:
00BB   0009           00704         RETFIE  
                      00705 
                      00706 ;--------------------------------------------------------
                      00707 ; code
                      00708 ;--------------------------------------------------------
                      00709 code_main       code
                      00710 ;***
                      00711 ;  pBlock Stats: dbName = M
                      00712 ;***
                      00713 ;has an exit
                      00714 ;functions called:
                      00715 ;   _init
                      00716 ;   _SP_send
                      00717 ;   _uint8_to_ascii
                      00718 ;   _SP_send
                      00719 ;   _SP_send
                      00720 ;   _uint8_to_ascii
                      00721 ;   _SP_send
                      00722 ;   _SP_send
                      00723 ;   _SP_send
                      00724 ;   _SP_send
                      00725 ;   __mulchar
                      00726 ;   _SP_send
                      00727 ;   _uint8_to_ascii
                      00728 ;   _SP_send
                      00729 ;   __mulchar
                      00730 ;   _dec_to_ascii
                      00731 ;   _SP_send
                      00732 ;   _dec_to_ascii
gpasm-1.4.0 #1107 (May  9 2015) build/default   1-10-2017  21:38:28         PAGE 15


LOC    OBJECT CODE    LINE  SOURCE TEXT
  VALUE

                      00733 ;   _SP_send
                      00734 ;   _SP_send
                      00735 ;   _init
                      00736 ;   _SP_send
                      00737 ;   _uint8_to_ascii
                      00738 ;   _SP_send
                      00739 ;   _SP_send
                      00740 ;   _uint8_to_ascii
                      00741 ;   _SP_send
                      00742 ;   _SP_send
                      00743 ;   _SP_send
                      00744 ;   _SP_send
                      00745 ;   __mulchar
                      00746 ;   _SP_send
                      00747 ;   _uint8_to_ascii
                      00748 ;   _SP_send
                      00749 ;   __mulchar
                      00750 ;   _dec_to_ascii
                      00751 ;   _SP_send
                      00752 ;   _dec_to_ascii
                      00753 ;   _SP_send
                      00754 ;   _SP_send
                      00755 ;11 compiler assigned registers:
                      00756 ;   r0x1071
                      00757 ;   r0x1072
                      00758 ;   r0x1073
                      00759 ;   r0x1074
                      00760 ;   r0x1075
                      00761 ;   STK01
                      00762 ;   STK00
                      00763 ;   r0x1076
                      00764 ;   r0x1077
                      00765 ;   r0x1078
                      00766 ;   r0x1079
                      00767 ;; Starting pCode block
                      00768 S_main__main    code
0000                  00769 _main:
                      00770 ; 2 exit points
                      00771 ;       .line   176; "main.c"   uint8_t i = 0;
0000   ???? ????      00772         BANKSEL r0x1071
0002   01??           00773         CLRF    r0x1071
                      00774 ;       .line   180; "main.c"   init();
0003   ????           00775         PAGESEL _init
0004   2???           00776         CALL    _init
0005   ????           00777         PAGESEL $
                      00778 ;       .line   181; "main.c"   bitfield.Hint = FALSE;
0006   ???? ????      00779         BANKSEL _bitfield
0008   11??           00780         BCF     _bitfield,2
                      00781 ;       .line   182; "main.c"   bitfield.Capture = FALSE;
0009   10??           00782         BCF     _bitfield,0
                      00783 ;       .line   183; "main.c"   GIE = 0;
000A   ???? ????      00784         BANKSEL _INTCONbits
000C   13??           00785         BCF     _INTCONbits,7
gpasm-1.4.0 #1107 (May  9 2015) build/default   1-10-2017  21:38:28         PAGE 16


LOC    OBJECT CODE    LINE  SOURCE TEXT
  VALUE

                      00786 ;       .line   184; "main.c"   TMR0 = 0;
000D   01??           00787         CLRF    _TMR0
                      00788 ;       .line   185; "main.c"   w2 = 250;
000E   30FA           00789         MOVLW   0xfa
000F   ???? ????      00790         BANKSEL _w2
0011   00??           00791         MOVWF   _w2
                      00792 ;       .line   186; "main.c"   t2 = 125;
0012   307D           00793         MOVLW   0x7d
0013   ???? ????      00794         BANKSEL _t2
0015   00??           00795         MOVWF   _t2
                      00796 ;       .line   187; "main.c"   temp = TMR0;
0016   ???? ????      00797         BANKSEL _TMR0
0018   08??           00798         MOVF    _TMR0,W
0019   ???? ????      00799         BANKSEL r0x1072
001B   00??           00800         MOVWF   r0x1072
                      00801 ;       .line   188; "main.c"   GIE = 1;
001C   ???? ????      00802         BANKSEL _INTCONbits
001E   17??           00803         BSF     _INTCONbits,7
                      00804 ;       .line   189; "main.c"   SP_send(strw1);
001F   30??           00805         MOVLW   high (_strw1 + 0)
0020   ???? ????      00806         BANKSEL r0x1073
0022   00??           00807         MOVWF   r0x1073
0023   30??           00808         MOVLW   (_strw1 + 0)
0024   00??           00809         MOVWF   r0x1074
0025   3080           00810         MOVLW   0x80
0026   00??           00811         MOVWF   r0x1075
0027   08??           00812         MOVF    r0x1074,W
0028   00??           00813         MOVWF   STK01
0029   08??           00814         MOVF    r0x1073,W
002A   00??           00815         MOVWF   STK00
002B   08??           00816         MOVF    r0x1075,W
002C   ????           00817         PAGESEL _SP_send
002D   2???           00818         CALL    _SP_send
002E   ????           00819         PAGESEL $
                      00820 ;       .line   191; "main.c"   uint8_to_ascii(temp);
002F   ???? ????      00821         BANKSEL r0x1072
0031   08??           00822         MOVF    r0x1072,W
0032   ????           00823         PAGESEL _uint8_to_ascii
0033   2???           00824         CALL    _uint8_to_ascii
0034   ????           00825         PAGESEL $
                      00826 ;       .line   192; "main.c"   SP_send(enter);
0035   30??           00827         MOVLW   high (_enter + 0)
0036   ???? ????      00828         BANKSEL r0x1073
0038   00??           00829         MOVWF   r0x1073
0039   30??           00830         MOVLW   (_enter + 0)
003A   00??           00831         MOVWF   r0x1074
003B   3080           00832         MOVLW   0x80
003C   00??           00833         MOVWF   r0x1075
003D   08??           00834         MOVF    r0x1074,W
003E   00??           00835         MOVWF   STK01
003F   08??           00836         MOVF    r0x1073,W
0040   00??           00837         MOVWF   STK00
0041   08??           00838         MOVF    r0x1075,W
gpasm-1.4.0 #1107 (May  9 2015) build/default   1-10-2017  21:38:28         PAGE 17


LOC    OBJECT CODE    LINE  SOURCE TEXT
  VALUE

0042   ????           00839         PAGESEL _SP_send
0043   2???           00840         CALL    _SP_send
0044   ????           00841         PAGESEL $
                      00842 ;       .line   193; "main.c"   GIE = 0;
0045   ???? ????      00843         BANKSEL _INTCONbits
0047   13??           00844         BCF     _INTCONbits,7
                      00845 ;       .line   194; "main.c"   TMR0 = 0;
0048   01??           00846         CLRF    _TMR0
                      00847 ;       .line   195; "main.c"   w1 = 430;
0049   30AE           00848         MOVLW   0xae
004A   ???? ????      00849         BANKSEL _w1
004C   00??           00850         MOVWF   _w1
004D   3001           00851         MOVLW   0x01
004E   00??           00852         MOVWF   (_w1 + 1)
                      00853 ;       .line   196; "main.c"   t1 = 1909;
004F   3075           00854         MOVLW   0x75
0050   ???? ????      00855         BANKSEL _t1
0052   00??           00856         MOVWF   _t1
0053   3007           00857         MOVLW   0x07
0054   00??           00858         MOVWF   (_t1 + 1)
                      00859 ;       .line   197; "main.c"   temp = TMR0;
0055   ???? ????      00860         BANKSEL _TMR0
0057   08??           00861         MOVF    _TMR0,W
0058   ???? ????      00862         BANKSEL r0x1072
005A   00??           00863         MOVWF   r0x1072
                      00864 ;       .line   198; "main.c"   GIE = 1;
005B   ???? ????      00865         BANKSEL _INTCONbits
005D   17??           00866         BSF     _INTCONbits,7
                      00867 ;       .line   199; "main.c"   SP_send(strw);
005E   30??           00868         MOVLW   high (_strw + 0)
005F   ???? ????      00869         BANKSEL r0x1073
0061   00??           00870         MOVWF   r0x1073
0062   30??           00871         MOVLW   (_strw + 0)
0063   00??           00872         MOVWF   r0x1074
0064   3080           00873         MOVLW   0x80
0065   00??           00874         MOVWF   r0x1075
0066   08??           00875         MOVF    r0x1074,W
0067   00??           00876         MOVWF   STK01
0068   08??           00877         MOVF    r0x1073,W
0069   00??           00878         MOVWF   STK00
006A   08??           00879         MOVF    r0x1075,W
006B   ????           00880         PAGESEL _SP_send
006C   2???           00881         CALL    _SP_send
006D   ????           00882         PAGESEL $
                      00883 ;       .line   201; "main.c"   uint8_to_ascii(temp);
006E   ???? ????      00884         BANKSEL r0x1072
0070   08??           00885         MOVF    r0x1072,W
0071   ????           00886         PAGESEL _uint8_to_ascii
0072   2???           00887         CALL    _uint8_to_ascii
0073   ????           00888         PAGESEL $
                      00889 ;       .line   202; "main.c"   SP_send(enter);
0074   30??           00890         MOVLW   high (_enter + 0)
0075   ???? ????      00891         BANKSEL r0x1073
gpasm-1.4.0 #1107 (May  9 2015) build/default   1-10-2017  21:38:28         PAGE 18


LOC    OBJECT CODE    LINE  SOURCE TEXT
  VALUE

0077   00??           00892         MOVWF   r0x1073
0078   30??           00893         MOVLW   (_enter + 0)
0079   00??           00894         MOVWF   r0x1074
007A   3080           00895         MOVLW   0x80
007B   00??           00896         MOVWF   r0x1075
007C   08??           00897         MOVF    r0x1074,W
007D   00??           00898         MOVWF   STK01
007E   08??           00899         MOVF    r0x1073,W
007F   00??           00900         MOVWF   STK00
0080   08??           00901         MOVF    r0x1075,W
0081   ????           00902         PAGESEL _SP_send
0082   2???           00903         CALL    _SP_send
0083   ????           00904         PAGESEL $
                      00905 ;       .line   204; "main.c"   while(1)
0084   ???? ????      00906         BANKSEL r0x1074
0086   01??           00907         CLRF    r0x1074
0087                  00908 _00169_DS_:
                      00909 ;       .line   220; "main.c"   TMR0 = 0;
0087   ???? ????      00910         BANKSEL _TMR0
0089   01??           00911         CLRF    _TMR0
                      00912 ;       .line   221; "main.c"   if (bitfield.Capture){
008A   ???? ????      00913         BANKSEL _bitfield
008C   1C??           00914         BTFSS   _bitfield,0
008D   2???           00915         GOTO    _00164_DS_
                      00916 ;       .line   223; "main.c"   bitfield.Capture = FALSE;
008E   10??           00917         BCF     _bitfield,0
                      00918 ;;swapping arguments (AOP_TYPEs 1/3)
                      00919 ;;unsigned compare: left >= lit(0x759=1881), size=2
                      00920 ;       .line   224; "main.c"   if (t > MIN_T && t < MAX_T && t1 > MIN_T && t1 < MAX_T){
008F   3007           00921         MOVLW   0x07
0090   ???? ????      00922         BANKSEL _t
0092   02??           00923         SUBWF   (_t + 1),W
0093   1D03           00924         BTFSS   STATUS,2
0094   2???           00925         GOTO    _00248_DS_
0095   3059           00926         MOVLW   0x59
0096   02??           00927         SUBWF   _t,W
0097                  00928 _00248_DS_:
0097   1C03           00929         BTFSS   STATUS,0
0098   2???           00930         GOTO    _00155_DS_
                      00931 ;;genSkipc:3257: created from rifx:0x7ffe804773d0
                      00932 ;;unsigned compare: left < lit(0x79E=1950), size=2
0099   3007           00933         MOVLW   0x07
009A   ???? ????      00934         BANKSEL _t
009C   02??           00935         SUBWF   (_t + 1),W
009D   1D03           00936         BTFSS   STATUS,2
009E   2???           00937         GOTO    _00249_DS_
009F   309E           00938         MOVLW   0x9e
00A0   02??           00939         SUBWF   _t,W
00A1                  00940 _00249_DS_:
00A1   1803           00941         BTFSC   STATUS,0
00A2   2???           00942         GOTO    _00155_DS_
                      00943 ;;genSkipc:3257: created from rifx:0x7ffe804773d0
                      00944 ;;swapping arguments (AOP_TYPEs 1/3)
gpasm-1.4.0 #1107 (May  9 2015) build/default   1-10-2017  21:38:28         PAGE 19


LOC    OBJECT CODE    LINE  SOURCE TEXT
  VALUE

                      00945 ;;unsigned compare: left >= lit(0x759=1881), size=2
00A3   3007           00946         MOVLW   0x07
00A4   ???? ????      00947         BANKSEL _t1
00A6   02??           00948         SUBWF   (_t1 + 1),W
00A7   1D03           00949         BTFSS   STATUS,2
00A8   2???           00950         GOTO    _00250_DS_
00A9   3059           00951         MOVLW   0x59
00AA   02??           00952         SUBWF   _t1,W
00AB                  00953 _00250_DS_:
00AB   1C03           00954         BTFSS   STATUS,0
00AC   2???           00955         GOTO    _00155_DS_
                      00956 ;;genSkipc:3257: created from rifx:0x7ffe804773d0
                      00957 ;;unsigned compare: left < lit(0x79E=1950), size=2
00AD   3007           00958         MOVLW   0x07
00AE   ???? ????      00959         BANKSEL _t1
00B0   02??           00960         SUBWF   (_t1 + 1),W
00B1   1D03           00961         BTFSS   STATUS,2
00B2   2???           00962         GOTO    _00251_DS_
00B3   309E           00963         MOVLW   0x9e
00B4   02??           00964         SUBWF   _t1,W
00B5                  00965 _00251_DS_:
00B5   1803           00966         BTFSC   STATUS,0
00B6   2???           00967         GOTO    _00155_DS_
                      00968 ;;genSkipc:3257: created from rifx:0x7ffe804773d0
                      00969 ;       .line   225; "main.c"   bitfield.Hint = TRUE;
00B7   ???? ????      00970         BANKSEL _bitfield
00B9   15??           00971         BSF     _bitfield,2
                      00972 ;;swapping arguments (AOP_TYPEs 1/3)
                      00973 ;;unsigned compare: left >= lit(0x547=1351), size=2
                      00974 ;       .line   226; "main.c"   if (w > MIN_W1 && w < MAX_W1 && w1 > MIN_W1 && w1 < MAX_W1){
00BA   3005           00975         MOVLW   0x05
00BB   ???? ????      00976         BANKSEL _w
00BD   02??           00977         SUBWF   (_w + 1),W
00BE   1D03           00978         BTFSS   STATUS,2
00BF   2???           00979         GOTO    _00252_DS_
00C0   3047           00980         MOVLW   0x47
00C1   02??           00981         SUBWF   _w,W
00C2                  00982 _00252_DS_:
00C2   1C03           00983         BTFSS   STATUS,0
00C3   2???           00984         GOTO    _00140_DS_
                      00985 ;;genSkipc:3257: created from rifx:0x7ffe804773d0
                      00986 ;;unsigned compare: left < lit(0x596=1430), size=2
00C4   3005           00987         MOVLW   0x05
00C5   ???? ????      00988         BANKSEL _w
00C7   02??           00989         SUBWF   (_w + 1),W
00C8   1D03           00990         BTFSS   STATUS,2
00C9   2???           00991         GOTO    _00253_DS_
00CA   3096           00992         MOVLW   0x96
00CB   02??           00993         SUBWF   _w,W
00CC                  00994 _00253_DS_:
00CC   1803           00995         BTFSC   STATUS,0
00CD   2???           00996         GOTO    _00140_DS_
                      00997 ;;genSkipc:3257: created from rifx:0x7ffe804773d0
gpasm-1.4.0 #1107 (May  9 2015) build/default   1-10-2017  21:38:28         PAGE 20


LOC    OBJECT CODE    LINE  SOURCE TEXT
  VALUE

                      00998 ;;swapping arguments (AOP_TYPEs 1/3)
                      00999 ;;unsigned compare: left >= lit(0x547=1351), size=2
00CE   3005           01000         MOVLW   0x05
00CF   ???? ????      01001         BANKSEL _w1
00D1   02??           01002         SUBWF   (_w1 + 1),W
00D2   1D03           01003         BTFSS   STATUS,2
00D3   2???           01004         GOTO    _00254_DS_
00D4   3047           01005         MOVLW   0x47
00D5   02??           01006         SUBWF   _w1,W
00D6                  01007 _00254_DS_:
00D6   1C03           01008         BTFSS   STATUS,0
00D7   2???           01009         GOTO    _00140_DS_
                      01010 ;;genSkipc:3257: created from rifx:0x7ffe804773d0
                      01011 ;;unsigned compare: left < lit(0x596=1430), size=2
00D8   3005           01012         MOVLW   0x05
00D9   ???? ????      01013         BANKSEL _w1
00DB   02??           01014         SUBWF   (_w1 + 1),W
00DC   1D03           01015         BTFSS   STATUS,2
00DD   2???           01016         GOTO    _00255_DS_
00DE   3096           01017         MOVLW   0x96
00DF   02??           01018         SUBWF   _w1,W
00E0                  01019 _00255_DS_:
00E0   1803           01020         BTFSC   STATUS,0
00E1   2???           01021         GOTO    _00140_DS_
                      01022 ;;genSkipc:3257: created from rifx:0x7ffe804773d0
                      01023 ;       .line   227; "main.c"   SP_send(strV1);
00E2   30??           01024         MOVLW   high (_strV1 + 0)
00E3   ???? ????      01025         BANKSEL r0x1075
00E5   00??           01026         MOVWF   r0x1075
00E6   30??           01027         MOVLW   (_strV1 + 0)
00E7   00??           01028         MOVWF   r0x1073
00E8   3080           01029         MOVLW   0x80
00E9   00??           01030         MOVWF   r0x1076
00EA   08??           01031         MOVF    r0x1073,W
00EB   00??           01032         MOVWF   STK01
00EC   08??           01033         MOVF    r0x1075,W
00ED   00??           01034         MOVWF   STK00
00EE   08??           01035         MOVF    r0x1076,W
00EF   ????           01036         PAGESEL _SP_send
00F0   2???           01037         CALL    _SP_send
00F1   ????           01038         PAGESEL $
                      01039 ;       .line   228; "main.c"   t = 0;
00F2   ???? ????      01040         BANKSEL _t
00F4   01??           01041         CLRF    _t
00F5   01??           01042         CLRF    (_t + 1)
                      01043 ;       .line   229; "main.c"   w = 0;
00F6   ???? ????      01044         BANKSEL _w
00F8   01??           01045         CLRF    _w
00F9   01??           01046         CLRF    (_w + 1)
                      01047 ;       .line   230; "main.c"   i++;
00FA   ???? ????      01048         BANKSEL r0x1071
00FC   0A??           01049         INCF    r0x1071,F
                      01050 ;;swapping arguments (AOP_TYPEs 1/3)
gpasm-1.4.0 #1107 (May  9 2015) build/default   1-10-2017  21:38:28         PAGE 21


LOC    OBJECT CODE    LINE  SOURCE TEXT
  VALUE

                      01051 ;;unsigned compare: left >= lit(0x17D=381), size=2
00FD                  01052 _00140_DS_:
                      01053 ;       .line   232; "main.c"   if (w > MIN_W0 && w < MAX_W0 && w1 > MIN_W0 && w1 < MAX_W0){
00FD   3001           01054         MOVLW   0x01
00FE   ???? ????      01055         BANKSEL _w
0100   02??           01056         SUBWF   (_w + 1),W
0101   1D03           01057         BTFSS   STATUS,2
0102   2???           01058         GOTO    _00256_DS_
0103   307D           01059         MOVLW   0x7d
0104   02??           01060         SUBWF   _w,W
0105                  01061 _00256_DS_:
0105   1C03           01062         BTFSS   STATUS,0
0106   2???           01063         GOTO    _00145_DS_
                      01064 ;;genSkipc:3257: created from rifx:0x7ffe804773d0
                      01065 ;;unsigned compare: left < lit(0x1C2=450), size=2
0107   3001           01066         MOVLW   0x01
0108   ???? ????      01067         BANKSEL _w
010A   02??           01068         SUBWF   (_w + 1),W
010B   1D03           01069         BTFSS   STATUS,2
010C   2???           01070         GOTO    _00257_DS_
010D   30C2           01071         MOVLW   0xc2
010E   02??           01072         SUBWF   _w,W
010F                  01073 _00257_DS_:
010F   1803           01074         BTFSC   STATUS,0
0110   2???           01075         GOTO    _00145_DS_
                      01076 ;;genSkipc:3257: created from rifx:0x7ffe804773d0
                      01077 ;;swapping arguments (AOP_TYPEs 1/3)
                      01078 ;;unsigned compare: left >= lit(0x17D=381), size=2
0111   3001           01079         MOVLW   0x01
0112   ???? ????      01080         BANKSEL _w1
0114   02??           01081         SUBWF   (_w1 + 1),W
0115   1D03           01082         BTFSS   STATUS,2
0116   2???           01083         GOTO    _00258_DS_
0117   307D           01084         MOVLW   0x7d
0118   02??           01085         SUBWF   _w1,W
0119                  01086 _00258_DS_:
0119   1C03           01087         BTFSS   STATUS,0
011A   2???           01088         GOTO    _00145_DS_
                      01089 ;;genSkipc:3257: created from rifx:0x7ffe804773d0
                      01090 ;;unsigned compare: left < lit(0x1C2=450), size=2
011B   3001           01091         MOVLW   0x01
011C   ???? ????      01092         BANKSEL _w1
011E   02??           01093         SUBWF   (_w1 + 1),W
011F   1D03           01094         BTFSS   STATUS,2
0120   2???           01095         GOTO    _00259_DS_
0121   30C2           01096         MOVLW   0xc2
0122   02??           01097         SUBWF   _w1,W
0123                  01098 _00259_DS_:
0123   1803           01099         BTFSC   STATUS,0
0124   2???           01100         GOTO    _00145_DS_
                      01101 ;;genSkipc:3257: created from rifx:0x7ffe804773d0
                      01102 ;       .line   233; "main.c"   SP_send(strV0);
0125   30??           01103         MOVLW   high (_strV0 + 0)
gpasm-1.4.0 #1107 (May  9 2015) build/default   1-10-2017  21:38:28         PAGE 22


LOC    OBJECT CODE    LINE  SOURCE TEXT
  VALUE

0126   ???? ????      01104         BANKSEL r0x1075
0128   00??           01105         MOVWF   r0x1075
0129   30??           01106         MOVLW   (_strV0 + 0)
012A   00??           01107         MOVWF   r0x1073
012B   3080           01108         MOVLW   0x80
012C   00??           01109         MOVWF   r0x1076
012D   08??           01110         MOVF    r0x1073,W
012E   00??           01111         MOVWF   STK01
012F   08??           01112         MOVF    r0x1075,W
0130   00??           01113         MOVWF   STK00
0131   08??           01114         MOVF    r0x1076,W
0132   ????           01115         PAGESEL _SP_send
0133   2???           01116         CALL    _SP_send
0134   ????           01117         PAGESEL $
                      01118 ;       .line   234; "main.c"   t = 0;
0135   ???? ????      01119         BANKSEL _t
0137   01??           01120         CLRF    _t
0138   01??           01121         CLRF    (_t + 1)
                      01122 ;       .line   235; "main.c"   w = 0;
0139   ???? ????      01123         BANKSEL _w
013B   01??           01124         CLRF    _w
013C   01??           01125         CLRF    (_w + 1)
                      01126 ;       .line   236; "main.c"   i++;
013D   ???? ????      01127         BANKSEL r0x1071
013F   0A??           01128         INCF    r0x1071,F
                      01129 ;;swapping arguments (AOP_TYPEs 1/3)
                      01130 ;;unsigned compare: left >= lit(0x17D=381), size=2
0140                  01131 _00145_DS_:
                      01132 ;       .line   238; "main.c"   if (w1 > MIN_W0 && w1 < MAX_W0 && w > MIN_W1 && w < MAX_W1){
0140   3001           01133         MOVLW   0x01
0141   ???? ????      01134         BANKSEL _w1
0143   02??           01135         SUBWF   (_w1 + 1),W
0144   1D03           01136         BTFSS   STATUS,2
0145   2???           01137         GOTO    _00260_DS_
0146   307D           01138         MOVLW   0x7d
0147   02??           01139         SUBWF   _w1,W
0148                  01140 _00260_DS_:
0148   1C03           01141         BTFSS   STATUS,0
0149   2???           01142         GOTO    _00155_DS_
                      01143 ;;genSkipc:3257: created from rifx:0x7ffe804773d0
                      01144 ;;unsigned compare: left < lit(0x1C2=450), size=2
014A   3001           01145         MOVLW   0x01
014B   ???? ????      01146         BANKSEL _w1
014D   02??           01147         SUBWF   (_w1 + 1),W
014E   1D03           01148         BTFSS   STATUS,2
014F   2???           01149         GOTO    _00261_DS_
0150   30C2           01150         MOVLW   0xc2
0151   02??           01151         SUBWF   _w1,W
0152                  01152 _00261_DS_:
0152   1803           01153         BTFSC   STATUS,0
0153   2???           01154         GOTO    _00155_DS_
                      01155 ;;genSkipc:3257: created from rifx:0x7ffe804773d0
                      01156 ;;swapping arguments (AOP_TYPEs 1/3)
gpasm-1.4.0 #1107 (May  9 2015) build/default   1-10-2017  21:38:28         PAGE 23


LOC    OBJECT CODE    LINE  SOURCE TEXT
  VALUE

                      01157 ;;unsigned compare: left >= lit(0x547=1351), size=2
0154   3005           01158         MOVLW   0x05
0155   ???? ????      01159         BANKSEL _w
0157   02??           01160         SUBWF   (_w + 1),W
0158   1D03           01161         BTFSS   STATUS,2
0159   2???           01162         GOTO    _00262_DS_
015A   3047           01163         MOVLW   0x47
015B   02??           01164         SUBWF   _w,W
015C                  01165 _00262_DS_:
015C   1C03           01166         BTFSS   STATUS,0
015D   2???           01167         GOTO    _00155_DS_
                      01168 ;;genSkipc:3257: created from rifx:0x7ffe804773d0
                      01169 ;;unsigned compare: left < lit(0x596=1430), size=2
015E   3005           01170         MOVLW   0x05
015F   ???? ????      01171         BANKSEL _w
0161   02??           01172         SUBWF   (_w + 1),W
0162   1D03           01173         BTFSS   STATUS,2
0163   2???           01174         GOTO    _00263_DS_
0164   3096           01175         MOVLW   0x96
0165   02??           01176         SUBWF   _w,W
0166                  01177 _00263_DS_:
0166   1803           01178         BTFSC   STATUS,0
0167   2???           01179         GOTO    _00155_DS_
                      01180 ;;genSkipc:3257: created from rifx:0x7ffe804773d0
                      01181 ;       .line   239; "main.c"   SP_send(strVF);
0168   30??           01182         MOVLW   high (_strVF + 0)
0169   ???? ????      01183         BANKSEL r0x1075
016B   00??           01184         MOVWF   r0x1075
016C   30??           01185         MOVLW   (_strVF + 0)
016D   00??           01186         MOVWF   r0x1073
016E   3080           01187         MOVLW   0x80
016F   00??           01188         MOVWF   r0x1076
0170   08??           01189         MOVF    r0x1073,W
0171   00??           01190         MOVWF   STK01
0172   08??           01191         MOVF    r0x1075,W
0173   00??           01192         MOVWF   STK00
0174   08??           01193         MOVF    r0x1076,W
0175   ????           01194         PAGESEL _SP_send
0176   2???           01195         CALL    _SP_send
0177   ????           01196         PAGESEL $
                      01197 ;       .line   240; "main.c"   t = 0;
0178   ???? ????      01198         BANKSEL _t
017A   01??           01199         CLRF    _t
017B   01??           01200         CLRF    (_t + 1)
                      01201 ;       .line   241; "main.c"   w = 0;
017C   ???? ????      01202         BANKSEL _w
017E   01??           01203         CLRF    _w
017F   01??           01204         CLRF    (_w + 1)
                      01205 ;       .line   242; "main.c"   i++;
0180   ???? ????      01206         BANKSEL r0x1071
0182   0A??           01207         INCF    r0x1071,F
                      01208 ;;swapping arguments (AOP_TYPEs 1/2)
                      01209 ;;unsigned compare: left >= lit(0x9=9), size=1
gpasm-1.4.0 #1107 (May  9 2015) build/default   1-10-2017  21:38:28         PAGE 24


LOC    OBJECT CODE    LINE  SOURCE TEXT
  VALUE

0183                  01210 _00155_DS_:
                      01211 ;       .line   245; "main.c"   if (i > 8 && bitfield.Hint && k < 10){
0183   3009           01212         MOVLW   0x09
0184   ???? ????      01213         BANKSEL r0x1071
0186   02??           01214         SUBWF   r0x1071,W
0187   1C03           01215         BTFSS   STATUS,0
0188   2???           01216         GOTO    _00160_DS_
                      01217 ;;genSkipc:3257: created from rifx:0x7ffe804773d0
0189   ???? ????      01218         BANKSEL _bitfield
018B   1D??           01219         BTFSS   _bitfield,2
018C   2???           01220         GOTO    _00160_DS_
                      01221 ;;unsigned compare: left < lit(0xA=10), size=1
018D   300A           01222         MOVLW   0x0a
018E   ???? ????      01223         BANKSEL r0x1074
0190   02??           01224         SUBWF   r0x1074,W
0191   1803           01225         BTFSC   STATUS,0
0192   2???           01226         GOTO    _00160_DS_
                      01227 ;;genSkipc:3257: created from rifx:0x7ffe804773d0
                      01228 ;       .line   246; "main.c"   bw[k] = w;
0193   3002           01229         MOVLW   0x02
0194   00??           01230         MOVWF   STK00
0195   08??           01231         MOVF    r0x1074,W
0196   ????           01232         PAGESEL __mulchar
0197   2???           01233         CALL    __mulchar
0198   ????           01234         PAGESEL $
0199   ???? ????      01235         BANKSEL r0x1073
019B   00??           01236         MOVWF   r0x1073
019C   01??           01237         CLRF    r0x1075
019D   08??           01238         MOVF    r0x1073,W
019E   3E??           01239         ADDLW   (_bw + 0)
019F   00??           01240         MOVWF   r0x1076
01A0   30??           01241         MOVLW   high (_bw + 0)
01A1   00??           01242         MOVWF   r0x1077
01A2   3000           01243         MOVLW   0x00
01A3   1803           01244         BTFSC   STATUS,0
01A4   0F??           01245         INCFSZ  r0x1075,W
01A5   07??           01246         ADDWF   r0x1077,F
01A6   08??           01247         MOVF    r0x1076,W
01A7   1283 1303      01248         BANKSEL FSR
01A9   0084           01249         MOVWF   FSR
01AA   1383           01250         BCF     STATUS,7
01AB   ???? ????      01251         BANKSEL r0x1077
01AD   18??           01252         BTFSC   r0x1077,0
01AE   1783           01253         BSF     STATUS,7
01AF   ???? ????      01254         BANKSEL _w
01B1   08??           01255         MOVF    _w,W
01B2   1283 1303      01256         BANKSEL INDF
01B4   0080           01257         MOVWF   INDF
01B5   0A84           01258         INCF    FSR,F
01B6   ???? ????      01259         BANKSEL _w
01B8   08??           01260         MOVF    (_w + 1),W
01B9   1283 1303      01261         BANKSEL INDF
01BB   0080           01262         MOVWF   INDF
gpasm-1.4.0 #1107 (May  9 2015) build/default   1-10-2017  21:38:28         PAGE 25


LOC    OBJECT CODE    LINE  SOURCE TEXT
  VALUE

                      01263 ;       .line   247; "main.c"   bt[k] = t;
01BC   ???? ????      01264         BANKSEL r0x1073
01BE   08??           01265         MOVF    r0x1073,W
01BF   3E??           01266         ADDLW   (_bt + 0)
01C0   00??           01267         MOVWF   r0x1073
01C1   08??           01268         MOVF    r0x1075,W
01C2   1803           01269         BTFSC   STATUS,0
01C3   0F??           01270         INCFSZ  r0x1075,W
01C4   3E??           01271         ADDLW   high (_bt + 0)
01C5   00??           01272         MOVWF   r0x1075
01C6   08??           01273         MOVF    r0x1073,W
01C7   1283 1303      01274         BANKSEL FSR
01C9   0084           01275         MOVWF   FSR
01CA   1383           01276         BCF     STATUS,7
01CB   ???? ????      01277         BANKSEL r0x1075
01CD   18??           01278         BTFSC   r0x1075,0
01CE   1783           01279         BSF     STATUS,7
01CF   ???? ????      01280         BANKSEL _t
01D1   08??           01281         MOVF    _t,W
01D2   1283 1303      01282         BANKSEL INDF
01D4   0080           01283         MOVWF   INDF
01D5   0A84           01284         INCF    FSR,F
01D6   ???? ????      01285         BANKSEL _t
01D8   08??           01286         MOVF    (_t + 1),W
01D9   1283 1303      01287         BANKSEL INDF
01DB   0080           01288         MOVWF   INDF
                      01289 ;       .line   248; "main.c"   k++;
01DC   ???? ????      01290         BANKSEL r0x1074
01DE   0A??           01291         INCF    r0x1074,F
                      01292 ;       .line   249; "main.c"   temp = TMR0;
01DF   ???? ????      01293         BANKSEL _TMR0
01E1   08??           01294         MOVF    _TMR0,W
01E2   ???? ????      01295         BANKSEL r0x1072
01E4   00??           01296         MOVWF   r0x1072
                      01297 ;       .line   251; "main.c"   SP_send(strw);
01E5   30??           01298         MOVLW   high (_strw + 0)
01E6   00??           01299         MOVWF   r0x1075
01E7   30??           01300         MOVLW   (_strw + 0)
01E8   00??           01301         MOVWF   r0x1073
01E9   3080           01302         MOVLW   0x80
01EA   00??           01303         MOVWF   r0x1076
01EB   08??           01304         MOVF    r0x1073,W
01EC   00??           01305         MOVWF   STK01
01ED   08??           01306         MOVF    r0x1075,W
01EE   00??           01307         MOVWF   STK00
01EF   08??           01308         MOVF    r0x1076,W
01F0   ????           01309         PAGESEL _SP_send
01F1   2???           01310         CALL    _SP_send
01F2   ????           01311         PAGESEL $
                      01312 ;       .line   253; "main.c"   uint8_to_ascii(temp);
01F3   ???? ????      01313         BANKSEL r0x1072
01F5   08??           01314         MOVF    r0x1072,W
01F6   ????           01315         PAGESEL _uint8_to_ascii
gpasm-1.4.0 #1107 (May  9 2015) build/default   1-10-2017  21:38:28         PAGE 26


LOC    OBJECT CODE    LINE  SOURCE TEXT
  VALUE

01F7   2???           01316         CALL    _uint8_to_ascii
01F8   ????           01317         PAGESEL $
                      01318 ;       .line   254; "main.c"   SP_send(enter);
01F9   30??           01319         MOVLW   high (_enter + 0)
01FA   ???? ????      01320         BANKSEL r0x1073
01FC   00??           01321         MOVWF   r0x1073
01FD   30??           01322         MOVLW   (_enter + 0)
01FE   00??           01323         MOVWF   r0x1072
01FF   3080           01324         MOVLW   0x80
0200   00??           01325         MOVWF   r0x1075
0201   08??           01326         MOVF    r0x1072,W
0202   00??           01327         MOVWF   STK01
0203   08??           01328         MOVF    r0x1073,W
0204   00??           01329         MOVWF   STK00
0205   08??           01330         MOVF    r0x1075,W
0206   ????           01331         PAGESEL _SP_send
0207   2???           01332         CALL    _SP_send
0208   ????           01333         PAGESEL $
0209                  01334 _00160_DS_:
                      01335 ;       .line   256; "main.c"   GIE = 1;
0209   ???? ????      01336         BANKSEL _INTCONbits
020B   17??           01337         BSF     _INTCONbits,7
                      01338 ;       .line   257; "main.c"   t1 = t;
020C   ???? ????      01339         BANKSEL _t
020E   08??           01340         MOVF    _t,W
020F   ???? ????      01341         BANKSEL _t1
0211   00??           01342         MOVWF   _t1
0212   ???? ????      01343         BANKSEL _t
0214   08??           01344         MOVF    (_t + 1),W
0215   ???? ????      01345         BANKSEL _t1
0217   00??           01346         MOVWF   (_t1 + 1)
                      01347 ;       .line   258; "main.c"   w1 = w;
0218   ???? ????      01348         BANKSEL _w
021A   08??           01349         MOVF    _w,W
021B   ???? ????      01350         BANKSEL _w1
021D   00??           01351         MOVWF   _w1
021E   ???? ????      01352         BANKSEL _w
0220   08??           01353         MOVF    (_w + 1),W
0221   ???? ????      01354         BANKSEL _w1
0223   00??           01355         MOVWF   (_w1 + 1)
                      01356 ;;unsigned compare: left < lit(0xA=10), size=1
0224                  01357 _00164_DS_:
                      01358 ;       .line   260; "main.c"   if(i >= 10){
0224   300A           01359         MOVLW   0x0a
0225   ???? ????      01360         BANKSEL r0x1071
0227   02??           01361         SUBWF   r0x1071,W
0228   1C03           01362         BTFSS   STATUS,0
0229   2???           01363         GOTO    _00167_DS_
                      01364 ;;genSkipc:3257: created from rifx:0x7ffe804773d0
                      01365 ;       .line   261; "main.c"   for(j = 0; j < 10; j++){
022A   01??           01366         CLRF    r0x1072
022B                  01367 _00171_DS_:
                      01368 ;       .line   262; "main.c"   dec_to_ascii(bw[j]);
gpasm-1.4.0 #1107 (May  9 2015) build/default   1-10-2017  21:38:28         PAGE 27


LOC    OBJECT CODE    LINE  SOURCE TEXT
  VALUE

022B   3002           01369         MOVLW   0x02
022C   00??           01370         MOVWF   STK00
022D   ???? ????      01371         BANKSEL r0x1072
022F   08??           01372         MOVF    r0x1072,W
0230   ????           01373         PAGESEL __mulchar
0231   2???           01374         CALL    __mulchar
0232   ????           01375         PAGESEL $
0233   ???? ????      01376         BANKSEL r0x1073
0235   00??           01377         MOVWF   r0x1073
0236   01??           01378         CLRF    r0x1075
0237   08??           01379         MOVF    r0x1073,W
0238   3E??           01380         ADDLW   (_bw + 0)
0239   00??           01381         MOVWF   r0x1076
023A   30??           01382         MOVLW   high (_bw + 0)
023B   00??           01383         MOVWF   r0x1077
023C   3000           01384         MOVLW   0x00
023D   1803           01385         BTFSC   STATUS,0
023E   0F??           01386         INCFSZ  r0x1075,W
023F   07??           01387         ADDWF   r0x1077,F
0240   08??           01388         MOVF    r0x1076,W
0241   1283 1303      01389         BANKSEL FSR
0243   0084           01390         MOVWF   FSR
0244   1383           01391         BCF     STATUS,7
0245   ???? ????      01392         BANKSEL r0x1077
0247   18??           01393         BTFSC   r0x1077,0
0248   1783           01394         BSF     STATUS,7
0249   1283 1303      01395         BANKSEL INDF
024B   0800           01396         MOVF    INDF,W
024C   ???? ????      01397         BANKSEL r0x1078
024E   00??           01398         MOVWF   r0x1078
024F   1283 1303      01399         BANKSEL FSR
0251   0A84           01400         INCF    FSR,F
0252   0800           01401         MOVF    INDF,W
0253   ???? ????      01402         BANKSEL r0x1079
0255   00??           01403         MOVWF   r0x1079
0256   08??           01404         MOVF    r0x1078,W
0257   00??           01405         MOVWF   STK00
0258   08??           01406         MOVF    r0x1079,W
0259   ????           01407         PAGESEL _dec_to_ascii
025A   2???           01408         CALL    _dec_to_ascii
025B   ????           01409         PAGESEL $
                      01410 ;       .line   263; "main.c"   SP_send(tab);
025C   30??           01411         MOVLW   high (_tab + 0)
025D   ???? ????      01412         BANKSEL r0x1077
025F   00??           01413         MOVWF   r0x1077
0260   30??           01414         MOVLW   (_tab + 0)
0261   00??           01415         MOVWF   r0x1076
0262   3080           01416         MOVLW   0x80
0263   00??           01417         MOVWF   r0x1078
0264   08??           01418         MOVF    r0x1076,W
0265   00??           01419         MOVWF   STK01
0266   08??           01420         MOVF    r0x1077,W
0267   00??           01421         MOVWF   STK00
gpasm-1.4.0 #1107 (May  9 2015) build/default   1-10-2017  21:38:28         PAGE 28


LOC    OBJECT CODE    LINE  SOURCE TEXT
  VALUE

0268   08??           01422         MOVF    r0x1078,W
0269   ????           01423         PAGESEL _SP_send
026A   2???           01424         CALL    _SP_send
026B   ????           01425         PAGESEL $
                      01426 ;       .line   264; "main.c"   dec_to_ascii(bt[j]);
026C   ???? ????      01427         BANKSEL r0x1073
026E   08??           01428         MOVF    r0x1073,W
026F   3E??           01429         ADDLW   (_bt + 0)
0270   00??           01430         MOVWF   r0x1073
0271   08??           01431         MOVF    r0x1075,W
0272   1803           01432         BTFSC   STATUS,0
0273   0F??           01433         INCFSZ  r0x1075,W
0274   3E??           01434         ADDLW   high (_bt + 0)
0275   00??           01435         MOVWF   r0x1075
0276   08??           01436         MOVF    r0x1073,W
0277   1283 1303      01437         BANKSEL FSR
0279   0084           01438         MOVWF   FSR
027A   1383           01439         BCF     STATUS,7
027B   ???? ????      01440         BANKSEL r0x1075
027D   18??           01441         BTFSC   r0x1075,0
027E   1783           01442         BSF     STATUS,7
027F   1283 1303      01443         BANKSEL INDF
0281   0800           01444         MOVF    INDF,W
0282   ???? ????      01445         BANKSEL r0x1076
0284   00??           01446         MOVWF   r0x1076
0285   1283 1303      01447         BANKSEL FSR
0287   0A84           01448         INCF    FSR,F
0288   0800           01449         MOVF    INDF,W
0289   ???? ????      01450         BANKSEL r0x1077
028B   00??           01451         MOVWF   r0x1077
028C   08??           01452         MOVF    r0x1076,W
028D   00??           01453         MOVWF   STK00
028E   08??           01454         MOVF    r0x1077,W
028F   ????           01455         PAGESEL _dec_to_ascii
0290   2???           01456         CALL    _dec_to_ascii
0291   ????           01457         PAGESEL $
                      01458 ;       .line   265; "main.c"   SP_send(enter);
0292   30??           01459         MOVLW   high (_enter + 0)
0293   ???? ????      01460         BANKSEL r0x1075
0295   00??           01461         MOVWF   r0x1075
0296   30??           01462         MOVLW   (_enter + 0)
0297   00??           01463         MOVWF   r0x1073
0298   3080           01464         MOVLW   0x80
0299   00??           01465         MOVWF   r0x1076
029A   08??           01466         MOVF    r0x1073,W
029B   00??           01467         MOVWF   STK01
029C   08??           01468         MOVF    r0x1075,W
029D   00??           01469         MOVWF   STK00
029E   08??           01470         MOVF    r0x1076,W
029F   ????           01471         PAGESEL _SP_send
02A0   2???           01472         CALL    _SP_send
02A1   ????           01473         PAGESEL $
                      01474 ;       .line   261; "main.c"   for(j = 0; j < 10; j++){
gpasm-1.4.0 #1107 (May  9 2015) build/default   1-10-2017  21:38:28         PAGE 29


LOC    OBJECT CODE    LINE  SOURCE TEXT
  VALUE

02A2   ???? ????      01475         BANKSEL r0x1072
02A4   0A??           01476         INCF    r0x1072,F
                      01477 ;;unsigned compare: left < lit(0xA=10), size=1
02A5   300A           01478         MOVLW   0x0a
02A6   02??           01479         SUBWF   r0x1072,W
02A7   1C03           01480         BTFSS   STATUS,0
02A8   2???           01481         GOTO    _00171_DS_
                      01482 ;;genSkipc:3257: created from rifx:0x7ffe804773d0
                      01483 ;       .line   267; "main.c"   SP_send(sync);
02A9   30??           01484         MOVLW   high (_sync + 0)
02AA   00??           01485         MOVWF   r0x1073
02AB   30??           01486         MOVLW   (_sync + 0)
02AC   00??           01487         MOVWF   r0x1072
02AD   3080           01488         MOVLW   0x80
02AE   00??           01489         MOVWF   r0x1075
02AF   08??           01490         MOVF    r0x1072,W
02B0   00??           01491         MOVWF   STK01
02B1   08??           01492         MOVF    r0x1073,W
02B2   00??           01493         MOVWF   STK00
02B3   08??           01494         MOVF    r0x1075,W
02B4   ????           01495         PAGESEL _SP_send
02B5   2???           01496         CALL    _SP_send
02B6   ????           01497         PAGESEL $
02B7                  01498 _00167_DS_:
                      01499 ;       .line   269; "main.c"   int_error_cnt = 0;
02B7   ???? ????      01500         BANKSEL _int_error_cnt
02B9   01??           01501         CLRF    _int_error_cnt
02BA   2???           01502         GOTO    _00169_DS_
02BB   0008           01503         RETURN  
                      01504 ; exit point of _main
                      01505 
                      01506 ;***
                      01507 ;  pBlock Stats: dbName = C
                      01508 ;***
                      01509 ;has an exit
                      01510 ;functions called:
                      01511 ;   __gptrget1
                      01512 ;   __gptrget1
                      01513 ;10 compiler assigned registers:
                      01514 ;   r0x104F
                      01515 ;   STK00
                      01516 ;   r0x1050
                      01517 ;   STK01
                      01518 ;   r0x1051
                      01519 ;   r0x1052
                      01520 ;   r0x1053
                      01521 ;   r0x1054
                      01522 ;   r0x1055
                      01523 ;   r0x1056
                      01524 ;; Starting pCode block
                      01525 S_main__SP_send_error   code
0000                  01526 _SP_send_error:
                      01527 ; 2 exit points
gpasm-1.4.0 #1107 (May  9 2015) build/default   1-10-2017  21:38:28         PAGE 30


LOC    OBJECT CODE    LINE  SOURCE TEXT
  VALUE

                      01528 ;       .line   364; "main.c"   void SP_send_error(char str[])
0000   ???? ????      01529         BANKSEL r0x104F
0002   00??           01530         MOVWF   r0x104F
0003   08??           01531         MOVF    STK00,W
0004   00??           01532         MOVWF   r0x1050
0005   08??           01533         MOVF    STK01,W
0006   00??           01534         MOVWF   r0x1051
                      01535 ;       .line   367; "main.c"   GIE = FALSE;    // Disable all interrupts.
0007   ???? ????      01536         BANKSEL _INTCONbits
0009   13??           01537         BCF     _INTCONbits,7
                      01538 ;       .line   368; "main.c"   for(i=0; str[i] != '\0'; i++)
000A   ???? ????      01539         BANKSEL r0x1052
000C   01??           01540         CLRF    r0x1052
000D                  01541 _00328_DS_:
000D   ???? ????      01542         BANKSEL r0x1052
000F   08??           01543         MOVF    r0x1052,W
0010   07??           01544         ADDWF   r0x1051,W
0011   00??           01545         MOVWF   r0x1053
0012   08??           01546         MOVF    r0x1050,W
0013   1803           01547         BTFSC   STATUS,0
0014   3E01           01548         ADDLW   0x01
0015   00??           01549         MOVWF   r0x1054
0016   08??           01550         MOVF    r0x104F,W
0017   1803           01551         BTFSC   STATUS,0
0018   3E01           01552         ADDLW   0x01
0019   00??           01553         MOVWF   r0x1055
001A   08??           01554         MOVF    r0x1053,W
001B   00??           01555         MOVWF   STK01
001C   08??           01556         MOVF    r0x1054,W
001D   00??           01557         MOVWF   STK00
001E   08??           01558         MOVF    r0x1055,W
001F   ????           01559         PAGESEL __gptrget1
0020   2???           01560         CALL    __gptrget1
0021   ????           01561         PAGESEL $
0022   ???? ????      01562         BANKSEL r0x1056
0024   00??           01563         MOVWF   r0x1056
0025   08??           01564         MOVF    r0x1056,W
0026   1903           01565         BTFSC   STATUS,2
0027   2???           01566         GOTO    _00330_DS_
                      01567 ;       .line   370; "main.c"   TXREG=str[i];   // Add a character to the output buffer
0028   08??           01568         MOVF    r0x1056,W
0029   ???? ????      01569         BANKSEL _TXREG
002B   00??           01570         MOVWF   _TXREG
002C                  01571 _00323_DS_:
                      01572 ;       .line   371; "main.c"   while(!TXIF);   // Wait while the output buffer is full
002C   ???? ????      01573         BANKSEL _PIR1bits
002E   1E??           01574         BTFSS   _PIR1bits,4
002F   2???           01575         GOTO    _00323_DS_
                      01576 ;       .line   368; "main.c"   for(i=0; str[i] != '\0'; i++)
0030   ???? ????      01577         BANKSEL r0x1052
0032   0A??           01578         INCF    r0x1052,F
0033   2???           01579         GOTO    _00328_DS_
0034                  01580 _00330_DS_:
gpasm-1.4.0 #1107 (May  9 2015) build/default   1-10-2017  21:38:28         PAGE 31


LOC    OBJECT CODE    LINE  SOURCE TEXT
  VALUE

0034   0008           01581         RETURN  
                      01582 ; exit point of _SP_send_error
                      01583 
                      01584 ;***
                      01585 ;  pBlock Stats: dbName = C
                      01586 ;***
                      01587 ;has an exit
                      01588 ;functions called:
                      01589 ;   __gptrget1
                      01590 ;   _circBufPush
                      01591 ;   __gptrget1
                      01592 ;   _circBufPush
                      01593 ;10 compiler assigned registers:
                      01594 ;   r0x105C
                      01595 ;   STK00
                      01596 ;   r0x105D
                      01597 ;   STK01
                      01598 ;   r0x105E
                      01599 ;   r0x105F
                      01600 ;   r0x1060
                      01601 ;   r0x1061
                      01602 ;   r0x1062
                      01603 ;   r0x1063
                      01604 ;; Starting pCode block
                      01605 S_main__SP_send code
0000                  01606 _SP_send:
                      01607 ; 2 exit points
                      01608 ;       .line   356; "main.c"   void SP_send(char str[]){
0000   ???? ????      01609         BANKSEL r0x105C
0002   00??           01610         MOVWF   r0x105C
0003   08??           01611         MOVF    STK00,W
0004   00??           01612         MOVWF   r0x105D
0005   08??           01613         MOVF    STK01,W
0006   00??           01614         MOVWF   r0x105E
                      01615 ;       .line   358; "main.c"   for(i=0; str[i] != '\0'; i++)
0007   01??           01616         CLRF    r0x105F
0008                  01617 _00316_DS_:
0008   ???? ????      01618         BANKSEL r0x105F
000A   08??           01619         MOVF    r0x105F,W
000B   07??           01620         ADDWF   r0x105E,W
000C   00??           01621         MOVWF   r0x1060
000D   08??           01622         MOVF    r0x105D,W
000E   1803           01623         BTFSC   STATUS,0
000F   3E01           01624         ADDLW   0x01
0010   00??           01625         MOVWF   r0x1061
0011   08??           01626         MOVF    r0x105C,W
0012   1803           01627         BTFSC   STATUS,0
0013   3E01           01628         ADDLW   0x01
0014   00??           01629         MOVWF   r0x1062
0015   08??           01630         MOVF    r0x1060,W
0016   00??           01631         MOVWF   STK01
0017   08??           01632         MOVF    r0x1061,W
0018   00??           01633         MOVWF   STK00
gpasm-1.4.0 #1107 (May  9 2015) build/default   1-10-2017  21:38:28         PAGE 32


LOC    OBJECT CODE    LINE  SOURCE TEXT
  VALUE

0019   08??           01634         MOVF    r0x1062,W
001A   ????           01635         PAGESEL __gptrget1
001B   2???           01636         CALL    __gptrget1
001C   ????           01637         PAGESEL $
001D   ???? ????      01638         BANKSEL r0x1063
001F   00??           01639         MOVWF   r0x1063
0020   08??           01640         MOVF    r0x1063,W
0021   1903           01641         BTFSC   STATUS,2
0022   2???           01642         GOTO    _00318_DS_
                      01643 ;       .line   360; "main.c"   circBufPush(str[i]);
0023   08??           01644         MOVF    r0x1063,W
0024   ????           01645         PAGESEL _circBufPush
0025   2???           01646         CALL    _circBufPush
0026   ????           01647         PAGESEL $
                      01648 ;       .line   358; "main.c"   for(i=0; str[i] != '\0'; i++)
0027   ???? ????      01649         BANKSEL r0x105F
0029   0A??           01650         INCF    r0x105F,F
002A   2???           01651         GOTO    _00316_DS_
002B                  01652 _00318_DS_:
002B   0008           01653         RETURN  
                      01654 ; exit point of _SP_send
                      01655 
                      01656 ;***
                      01657 ;  pBlock Stats: dbName = C
                      01658 ;***
                      01659 ;has an exit
                      01660 ;functions called:
                      01661 ;   __moduchar
                      01662 ;   __divuchar
                      01663 ;   _circBufPush
                      01664 ;   __moduchar
                      01665 ;   __divuchar
                      01666 ;   _circBufPush
                      01667 ;6 compiler assigned registers:
                      01668 ;   r0x1064
                      01669 ;   r0x1065
                      01670 ;   r0x1066
                      01671 ;   r0x1067
                      01672 ;   STK00
                      01673 ;   r0x1068
                      01674 ;; Starting pCode block
                      01675 S_main__uint8_to_ascii  code
0000                  01676 _uint8_to_ascii:
                      01677 ; 2 exit points
                      01678 ;       .line   338; "main.c"   void uint8_to_ascii(uint8_t dec)
0000   ???? ????      01679         BANKSEL r0x1064
0002   00??           01680         MOVWF   r0x1064
                      01681 ;       .line   343; "main.c"   for (i=0 ; dec!=0  || i == 0; i++)
0003   01??           01682         CLRF    r0x1065
0004                  01683 _00302_DS_:
0004   3000           01684         MOVLW   0x00
0005   ???? ????      01685         BANKSEL r0x1064
0007   04??           01686         IORWF   r0x1064,W
gpasm-1.4.0 #1107 (May  9 2015) build/default   1-10-2017  21:38:28         PAGE 33


LOC    OBJECT CODE    LINE  SOURCE TEXT
  VALUE

0008   1D03           01687         BTFSS   STATUS,2
0009   2???           01688         GOTO    _00301_DS_
000A   08??           01689         MOVF    r0x1065,W
000B   1D03           01690         BTFSS   STATUS,2
000C   2???           01691         GOTO    _00309_DS_
000D                  01692 _00301_DS_:
                      01693 ;       .line   345; "main.c"   number[i]=(dec % 10);
000D   ???? ????      01694         BANKSEL r0x1065
000F   08??           01695         MOVF    r0x1065,W
0010   3E??           01696         ADDLW   (_uint8_to_ascii_number_1_34 + 0)
0011   00??           01697         MOVWF   r0x1066
0012   30??           01698         MOVLW   high (_uint8_to_ascii_number_1_34 + 0)
0013   1803           01699         BTFSC   STATUS,0
0014   3E01           01700         ADDLW   0x01
0015   00??           01701         MOVWF   r0x1067
0016   300A           01702         MOVLW   0x0a
0017   00??           01703         MOVWF   STK00
0018   08??           01704         MOVF    r0x1064,W
0019   ????           01705         PAGESEL __moduchar
001A   2???           01706         CALL    __moduchar
001B   ????           01707         PAGESEL $
001C   ???? ????      01708         BANKSEL r0x1068
001E   00??           01709         MOVWF   r0x1068
001F   08??           01710         MOVF    r0x1066,W
0020   1283 1303      01711         BANKSEL FSR
0022   0084           01712         MOVWF   FSR
0023   1383           01713         BCF     STATUS,7
0024   ???? ????      01714         BANKSEL r0x1067
0026   18??           01715         BTFSC   r0x1067,0
0027   1783           01716         BSF     STATUS,7
0028   08??           01717         MOVF    r0x1068,W
0029   1283 1303      01718         BANKSEL INDF
002B   0080           01719         MOVWF   INDF
                      01720 ;       .line   346; "main.c"   dec /=10;
002C   300A           01721         MOVLW   0x0a
002D   00??           01722         MOVWF   STK00
002E   ???? ????      01723         BANKSEL r0x1064
0030   08??           01724         MOVF    r0x1064,W
0031   ????           01725         PAGESEL __divuchar
0032   2???           01726         CALL    __divuchar
0033   ????           01727         PAGESEL $
0034   ???? ????      01728         BANKSEL r0x1064
0036   00??           01729         MOVWF   r0x1064
                      01730 ;       .line   347; "main.c"   number[i] +=48;
0037   3030           01731         MOVLW   0x30
0038   07??           01732         ADDWF   r0x1068,F
0039   08??           01733         MOVF    r0x1066,W
003A   1283 1303      01734         BANKSEL FSR
003C   0084           01735         MOVWF   FSR
003D   1383           01736         BCF     STATUS,7
003E   ???? ????      01737         BANKSEL r0x1067
0040   18??           01738         BTFSC   r0x1067,0
0041   1783           01739         BSF     STATUS,7
gpasm-1.4.0 #1107 (May  9 2015) build/default   1-10-2017  21:38:28         PAGE 34


LOC    OBJECT CODE    LINE  SOURCE TEXT
  VALUE

0042   08??           01740         MOVF    r0x1068,W
0043   1283 1303      01741         BANKSEL INDF
0045   0080           01742         MOVWF   INDF
                      01743 ;       .line   343; "main.c"   for (i=0 ; dec!=0  || i == 0; i++)
0046   ???? ????      01744         BANKSEL r0x1065
0048   0A??           01745         INCF    r0x1065,F
0049   2???           01746         GOTO    _00302_DS_
004A                  01747 _00309_DS_:
                      01748 ;       .line   349; "main.c"   while (i--)
004A   ???? ????      01749         BANKSEL r0x1065
004C   08??           01750         MOVF    r0x1065,W
004D   00??           01751         MOVWF   r0x1064
004E                  01752 _00297_DS_:
004E   ???? ????      01753         BANKSEL r0x1064
0050   08??           01754         MOVF    r0x1064,W
0051   00??           01755         MOVWF   r0x1065
0052   03??           01756         DECF    r0x1064,F
0053   08??           01757         MOVF    r0x1065,W
0054   1903           01758         BTFSC   STATUS,2
0055   2???           01759         GOTO    _00304_DS_
                      01760 ;       .line   351; "main.c"   circBufPush(number[i]); // Add a character to the output buffer
0056   08??           01761         MOVF    r0x1064,W
0057   3E??           01762         ADDLW   (_uint8_to_ascii_number_1_34 + 0)
0058   00??           01763         MOVWF   r0x1065
0059   30??           01764         MOVLW   high (_uint8_to_ascii_number_1_34 + 0)
005A   1803           01765         BTFSC   STATUS,0
005B   3E01           01766         ADDLW   0x01
005C   00??           01767         MOVWF   r0x1066
005D   08??           01768         MOVF    r0x1065,W
005E   1283 1303      01769         BANKSEL FSR
0060   0084           01770         MOVWF   FSR
0061   1383           01771         BCF     STATUS,7
0062   ???? ????      01772         BANKSEL r0x1066
0064   18??           01773         BTFSC   r0x1066,0
0065   1783           01774         BSF     STATUS,7
0066   1283 1303      01775         BANKSEL INDF
0068   0800           01776         MOVF    INDF,W
0069   ???? ????      01777         BANKSEL r0x1067
006B   00??           01778         MOVWF   r0x1067
006C   ????           01779         PAGESEL _circBufPush
006D   2???           01780         CALL    _circBufPush
006E   ????           01781         PAGESEL $
006F   2???           01782         GOTO    _00297_DS_
0070                  01783 _00304_DS_:
0070   0008           01784         RETURN  
                      01785 ; exit point of _uint8_to_ascii
                      01786 
                      01787 ;***
                      01788 ;  pBlock Stats: dbName = C
                      01789 ;***
                      01790 ;has an exit
                      01791 ;functions called:
                      01792 ;   __moduint
gpasm-1.4.0 #1107 (May  9 2015) build/default   1-10-2017  21:38:28         PAGE 35


LOC    OBJECT CODE    LINE  SOURCE TEXT
  VALUE

                      01793 ;   __divuint
                      01794 ;   _circBufPush
                      01795 ;   __moduint
                      01796 ;   __divuint
                      01797 ;   _circBufPush
                      01798 ;11 compiler assigned registers:
                      01799 ;   r0x1069
                      01800 ;   STK00
                      01801 ;   r0x106A
                      01802 ;   r0x106B
                      01803 ;   r0x106C
                      01804 ;   r0x106D
                      01805 ;   STK02
                      01806 ;   STK01
                      01807 ;   r0x106E
                      01808 ;   r0x106F
                      01809 ;   r0x1070
                      01810 ;; Starting pCode block
                      01811 S_main__dec_to_ascii    code
0000                  01812 _dec_to_ascii:
                      01813 ; 2 exit points
                      01814 ;       .line   302; "main.c"   void dec_to_ascii(unsigned short dec)
0000   ???? ????      01815         BANKSEL r0x1069
0002   00??           01816         MOVWF   r0x1069
0003   08??           01817         MOVF    STK00,W
0004   00??           01818         MOVWF   r0x106A
                      01819 ;       .line   307; "main.c"   for (i=0 ; dec!=0; i++)
0005   01??           01820         CLRF    r0x106B
0006                  01821 _00282_DS_:
0006   ???? ????      01822         BANKSEL r0x106A
0008   08??           01823         MOVF    r0x106A,W
0009   04??           01824         IORWF   r0x1069,W
000A   1903           01825         BTFSC   STATUS,2
000B   2???           01826         GOTO    _00291_DS_
                      01827 ;       .line   309; "main.c"   number[i]=(dec % 10);
000C   08??           01828         MOVF    r0x106B,W
000D   3E??           01829         ADDLW   (_dec_to_ascii_number_1_30 + 0)
000E   00??           01830         MOVWF   r0x106C
000F   30??           01831         MOVLW   high (_dec_to_ascii_number_1_30 + 0)
0010   1803           01832         BTFSC   STATUS,0
0011   3E01           01833         ADDLW   0x01
0012   00??           01834         MOVWF   r0x106D
0013   300A           01835         MOVLW   0x0a
0014   00??           01836         MOVWF   STK02
0015   3000           01837         MOVLW   0x00
0016   00??           01838         MOVWF   STK01
0017   08??           01839         MOVF    r0x106A,W
0018   00??           01840         MOVWF   STK00
0019   08??           01841         MOVF    r0x1069,W
001A   ????           01842         PAGESEL __moduint
001B   2???           01843         CALL    __moduint
001C   ????           01844         PAGESEL $
                      01845 ;;1     MOVWF   r0x106E
gpasm-1.4.0 #1107 (May  9 2015) build/default   1-10-2017  21:38:28         PAGE 36


LOC    OBJECT CODE    LINE  SOURCE TEXT
  VALUE

001D   08??           01846         MOVF    STK00,W
                      01847 ;;1     MOVWF   r0x106F
001E   ???? ????      01848         BANKSEL r0x1070
0020   00??           01849         MOVWF   r0x1070
0021   08??           01850         MOVF    r0x106C,W
0022   1283 1303      01851         BANKSEL FSR
0024   0084           01852         MOVWF   FSR
0025   1383           01853         BCF     STATUS,7
0026   ???? ????      01854         BANKSEL r0x106D
0028   18??           01855         BTFSC   r0x106D,0
0029   1783           01856         BSF     STATUS,7
002A   08??           01857         MOVF    r0x1070,W
002B   1283 1303      01858         BANKSEL INDF
002D   0080           01859         MOVWF   INDF
                      01860 ;       .line   310; "main.c"   dec /=10;
002E   300A           01861         MOVLW   0x0a
002F   00??           01862         MOVWF   STK02
0030   3000           01863         MOVLW   0x00
0031   00??           01864         MOVWF   STK01
0032   ???? ????      01865         BANKSEL r0x106A
0034   08??           01866         MOVF    r0x106A,W
0035   00??           01867         MOVWF   STK00
0036   08??           01868         MOVF    r0x1069,W
0037   ????           01869         PAGESEL __divuint
0038   2???           01870         CALL    __divuint
0039   ????           01871         PAGESEL $
003A   ???? ????      01872         BANKSEL r0x1069
003C   00??           01873         MOVWF   r0x1069
003D   08??           01874         MOVF    STK00,W
003E   00??           01875         MOVWF   r0x106A
                      01876 ;       .line   311; "main.c"   number[i] +=48;
003F   3030           01877         MOVLW   0x30
0040   07??           01878         ADDWF   r0x1070,F
0041   08??           01879         MOVF    r0x106C,W
0042   1283 1303      01880         BANKSEL FSR
0044   0084           01881         MOVWF   FSR
0045   1383           01882         BCF     STATUS,7
0046   ???? ????      01883         BANKSEL r0x106D
0048   18??           01884         BTFSC   r0x106D,0
0049   1783           01885         BSF     STATUS,7
004A   08??           01886         MOVF    r0x1070,W
004B   1283 1303      01887         BANKSEL INDF
004D   0080           01888         MOVWF   INDF
                      01889 ;       .line   307; "main.c"   for (i=0 ; dec!=0; i++)
004E   ???? ????      01890         BANKSEL r0x106B
0050   0A??           01891         INCF    r0x106B,F
0051   2???           01892         GOTO    _00282_DS_
0052                  01893 _00291_DS_:
                      01894 ;       .line   313; "main.c"   while (i--)
0052   ???? ????      01895         BANKSEL r0x106B
0054   08??           01896         MOVF    r0x106B,W
0055   00??           01897         MOVWF   r0x106A
0056                  01898 _00278_DS_:
gpasm-1.4.0 #1107 (May  9 2015) build/default   1-10-2017  21:38:28         PAGE 37


LOC    OBJECT CODE    LINE  SOURCE TEXT
  VALUE

0056   ???? ????      01899         BANKSEL r0x106A
0058   08??           01900         MOVF    r0x106A,W
0059   00??           01901         MOVWF   r0x1069
005A   03??           01902         DECF    r0x106A,F
005B   08??           01903         MOVF    r0x1069,W
005C   1903           01904         BTFSC   STATUS,2
005D   2???           01905         GOTO    _00284_DS_
                      01906 ;       .line   315; "main.c"   circBufPush(number[i]); // Add a character to the output buffer
005E   08??           01907         MOVF    r0x106A,W
005F   3E??           01908         ADDLW   (_dec_to_ascii_number_1_30 + 0)
0060   00??           01909         MOVWF   r0x1069
0061   30??           01910         MOVLW   high (_dec_to_ascii_number_1_30 + 0)
0062   1803           01911         BTFSC   STATUS,0
0063   3E01           01912         ADDLW   0x01
0064   00??           01913         MOVWF   r0x106B
0065   08??           01914         MOVF    r0x1069,W
0066   1283 1303      01915         BANKSEL FSR
0068   0084           01916         MOVWF   FSR
0069   1383           01917         BCF     STATUS,7
006A   ???? ????      01918         BANKSEL r0x106B
006C   18??           01919         BTFSC   r0x106B,0
006D   1783           01920         BSF     STATUS,7
006E   1283 1303      01921         BANKSEL INDF
0070   0800           01922         MOVF    INDF,W
0071   ???? ????      01923         BANKSEL r0x106C
0073   00??           01924         MOVWF   r0x106C
0074   ????           01925         PAGESEL _circBufPush
0075   2???           01926         CALL    _circBufPush
0076   ????           01927         PAGESEL $
0077   2???           01928         GOTO    _00278_DS_
0078                  01929 _00284_DS_:
0078   0008           01930         RETURN  
                      01931 ; exit point of _dec_to_ascii
                      01932 
                      01933 ;***
                      01934 ;  pBlock Stats: dbName = C
                      01935 ;***
                      01936 ;has an exit
                      01937 ;functions called:
                      01938 ;   _SP_send_error
                      01939 ;   _SP_send_error
                      01940 ;7 compiler assigned registers:
                      01941 ;   r0x1057
                      01942 ;   r0x1058
                      01943 ;   r0x1059
                      01944 ;   r0x105A
                      01945 ;   r0x105B
                      01946 ;   STK01
                      01947 ;   STK00
                      01948 ;; Starting pCode block
                      01949 S_main__circBufPush     code
0000                  01950 _circBufPush:
                      01951 ; 2 exit points
gpasm-1.4.0 #1107 (May  9 2015) build/default   1-10-2017  21:38:28         PAGE 38


LOC    OBJECT CODE    LINE  SOURCE TEXT
  VALUE

                      01952 ;       .line   273; "main.c"   int circBufPush(uint8_t data){
0000   ???? ????      01953         BANKSEL r0x1057
0002   00??           01954         MOVWF   r0x1057
                      01955 ;       .line   274; "main.c"   uint8_t next = buf_head + 1;
0003   ???? ????      01956         BANKSEL _buf_head
0005   0A??           01957         INCF    _buf_head,W
0006   ???? ????      01958         BANKSEL r0x1058
0008   00??           01959         MOVWF   r0x1058
                      01960 ;;unsigned compare: left < lit(0x10=16), size=1
                      01961 ;       .line   275; "main.c"   if (next >= BUF_SIZE)
0009   3010           01962         MOVLW   0x10
                      01963 ;       .line   276; "main.c"   next = 0;
000A   02??           01964         SUBWF   r0x1058,W
                      01965 ;       .line   279; "main.c"   if (next == buf_tail){
000B   1803           01966         BTFSC   STATUS,0
000C   01??           01967         CLRF    r0x1058
000D   ???? ????      01968         BANKSEL _buf_tail
000F   08??           01969         MOVF    _buf_tail,W
0010   ???? ????      01970         BANKSEL r0x1058
0012   06??           01971         XORWF   r0x1058,W
0013   1D03           01972         BTFSS   STATUS,2
0014   2???           01973         GOTO    _00271_DS_
                      01974 ;       .line   280; "main.c"   SP_send_error(buf_err);
0015   30??           01975         MOVLW   high (_buf_err + 0)
0016   00??           01976         MOVWF   r0x1059
0017   30??           01977         MOVLW   (_buf_err + 0)
0018   00??           01978         MOVWF   r0x105A
0019   3080           01979         MOVLW   0x80
001A   00??           01980         MOVWF   r0x105B
001B   08??           01981         MOVF    r0x105A,W
001C   00??           01982         MOVWF   STK01
001D   08??           01983         MOVF    r0x1059,W
001E   00??           01984         MOVWF   STK00
001F   08??           01985         MOVF    r0x105B,W
0020   ????           01986         PAGESEL _SP_send_error
0021   2???           01987         CALL    _SP_send_error
0022   ????           01988         PAGESEL $
                      01989 ;       .line   281; "main.c"   return -1;  // quit with an error
0023   30FF           01990         MOVLW   0xff
0024   00??           01991         MOVWF   STK00
0025   30FF           01992         MOVLW   0xff
0026   2???           01993         GOTO    _00272_DS_
0027                  01994 _00271_DS_:
                      01995 ;       .line   284; "main.c"   buf[buf_head] = data;
0027   ???? ????      01996         BANKSEL _buf_head
0029   08??           01997         MOVF    _buf_head,W
002A   3E??           01998         ADDLW   (_buf + 0)
002B   ???? ????      01999         BANKSEL r0x105A
002D   00??           02000         MOVWF   r0x105A
002E   30??           02001         MOVLW   high (_buf + 0)
002F   1803           02002         BTFSC   STATUS,0
0030   3E01           02003         ADDLW   0x01
0031   00??           02004         MOVWF   r0x1059
gpasm-1.4.0 #1107 (May  9 2015) build/default   1-10-2017  21:38:28         PAGE 39


LOC    OBJECT CODE    LINE  SOURCE TEXT
  VALUE

0032   08??           02005         MOVF    r0x105A,W
0033   1283 1303      02006         BANKSEL FSR
0035   0084           02007         MOVWF   FSR
0036   1383           02008         BCF     STATUS,7
0037   ???? ????      02009         BANKSEL r0x1059
0039   18??           02010         BTFSC   r0x1059,0
003A   1783           02011         BSF     STATUS,7
003B   08??           02012         MOVF    r0x1057,W
003C   1283 1303      02013         BANKSEL INDF
003E   0080           02014         MOVWF   INDF
                      02015 ;       .line   285; "main.c"   buf_head = next;
003F   ???? ????      02016         BANKSEL r0x1058
0041   08??           02017         MOVF    r0x1058,W
0042   ???? ????      02018         BANKSEL _buf_head
0044   00??           02019         MOVWF   _buf_head
                      02020 ;       .line   286; "main.c"   TXIE = 1;       //Enables the EUSART transmit interrupt
0045   ???? ????      02021         BANKSEL _PIE1bits
0047   16??           02022         BSF     _PIE1bits,4
                      02023 ;       .line   287; "main.c"   return 0;
0048   3000           02024         MOVLW   0x00
0049   00??           02025         MOVWF   STK00
004A   3000           02026         MOVLW   0x00
004B                  02027 _00272_DS_:
004B   0008           02028         RETURN  
                      02029 ; exit point of _circBufPush
                      02030 
                      02031 
                      02032 ;       code size estimation:
                      02033 ;         825+  263 =  1088 instructions ( 2702 byte)
                      02034 
                      02035         end
gpasm-1.4.0 #1107 (May  9 2015) build/default   1-10-2017  21:38:28         PAGE 40


SYMBOL TABLE
  LABEL                             VALUE

ABDEN                             00000000
ABDOVF                            00000007
ADCON0                            0000001F
ADCON1                            0000009F
ADCS0                             00000004
ADCS1                             00000005
ADCS2                             00000006
ADDEN                             00000003
ADFM                              00000007
ADIE                              00000006
ADIF                              00000006
ADON                              00000000
ADRESH                            0000001E
ADRESL                            0000009E
ANS0                              00000000
ANS1                              00000001
ANS10                             00000002
ANS11                             00000003
ANS2                              00000002
ANS3                              00000003
ANS4                              00000004
ANS5                              00000005
ANS6                              00000006
ANS7                              00000007
ANS8                              00000000
ANS9                              00000001
ANSEL                             0000011E
ANSELH                            0000011F
BAUDCTL                           0000009B
BF                                00000000
BRG0                              00000000
BRG1                              00000001
BRG10                             00000002
BRG11                             00000003
BRG12                             00000004
BRG13                             00000005
BRG14                             00000006
BRG15                             00000007
BRG16                             00000003
BRG2                              00000002
BRG3                              00000003
BRG4                              00000004
BRG5                              00000005
BRG6                              00000006
BRG7                              00000007
BRG8                              00000000
BRG9                              00000001
BRGH                              00000002
C                                 00000000
C1CH0                             00000000
C1CH1                             00000001
C1IE                              00000005
C1IF                              00000005
gpasm-1.4.0 #1107 (May  9 2015) build/default   1-10-2017  21:38:28         PAGE 41


SYMBOL TABLE
  LABEL                             VALUE 

C1OE                              00000005
C1ON                              00000007
C1OUT                             00000006
C1POL                             00000004
C1R                               00000002
C1SEN                             00000005
C1VREN                            00000007
C2CH0                             00000000
C2CH1                             00000001
C2IE                              00000006
C2IF                              00000006
C2OE                              00000005
C2ON                              00000007
C2OUT                             00000006
C2POL                             00000004
C2R                               00000002
C2REN                             00000004
C2SYNC                            00000000
C2VREN                            00000006
CCP1CON                           00000017
CCP1IE                            00000002
CCP1IF                            00000002
CCP1M0                            00000000
CCP1M1                            00000001
CCP1M2                            00000002
CCP1M3                            00000003
CCPR                              00000015
CCPR1H                            00000016
CCPR1L                            00000015
CHS0                              00000002
CHS1                              00000003
CHS2                              00000004
CHS3                              00000005
CKE                               00000006
CKP                               00000004
CM1CON0                           00000119
CM2CON0                           0000011A
CM2CON1                           0000011B
CREN                              00000004
CSRC                              00000007
D                                 00000005
DATA_ADDRESS                      00000005
DC                                00000001
DC1B0                             00000004
DC1B1                             00000005
D_A                               00000005
D_NOT_A                           00000005
ECCPAS                            0000001D
ECCPAS0                           00000004
ECCPAS1                           00000005
ECCPAS2                           00000006
ECCPASE                           00000007
EEADR                             0000010D
gpasm-1.4.0 #1107 (May  9 2015) build/default   1-10-2017  21:38:28         PAGE 42


SYMBOL TABLE
  LABEL                             VALUE 

EEADRH                            0000010F
EECON1                            0000018C
EECON2                            0000018D
EEDAT                             0000010C
EEDATA                            0000010C
EEDATH                            0000010E
EEIE                              00000004
EEIF                              00000004
EEPGD                             00000007
END_OF_INTERRUPT                  000000BB
F                                 00000001
FERR                              00000002
FSR                               00000004
GIE                               00000007
GO                                00000001
GO_DONE                           00000001
GO_NOT_DONE                       00000001
HTS                               00000002
I2C_DATA                          00000005
I2C_READ                          00000002
I2C_START                         00000003
I2C_STOP                          00000004
INDF                              00000000
INTCON                            0000000B
INTE                              00000004
INTEDG                            00000006
INTF                              00000001
IOC                               00000096
IOC0                              00000000
IOC1                              00000001
IOC2                              00000002
IOC3                              00000003
IOC4                              00000004
IOC5                              00000005
IOCA                              00000096
IOCA0                             00000000
IOCA1                             00000001
IOCA2                             00000002
IOCA3                             00000003
IOCA4                             00000004
IOCA5                             00000005
IOCB                              00000116
IOCB4                             00000004
IOCB5                             00000005
IOCB6                             00000006
IOCB7                             00000007
IRCF0                             00000004
IRCF1                             00000005
IRCF2                             00000006
IRP                               00000007
LTS                               00000001
MC1OUT                            00000007
MC2OUT                            00000006
gpasm-1.4.0 #1107 (May  9 2015) build/default   1-10-2017  21:38:28         PAGE 43


SYMBOL TABLE
  LABEL                             VALUE 

MSK                               00000093
MSK0                              00000000
MSK1                              00000001
MSK2                              00000002
MSK3                              00000003
MSK4                              00000004
MSK5                              00000005
MSK6                              00000006
MSK7                              00000007
NOT_A                             00000005
NOT_ADDRESS                       00000005
NOT_BOR                           00000000
NOT_DONE                          00000001
NOT_PD                            00000003
NOT_POR                           00000001
NOT_RABPU                         00000007
NOT_T1SYNC                        00000002
NOT_TO                            00000004
NOT_W                             00000002
NOT_WRITE                         00000002
OERR                              00000001
OPTION_REG                        00000081
OSCCON                            0000008F
OSCTUNE                           00000090
OSFIE                             00000007
OSFIF                             00000007
OSTS                              00000003
P                                 00000004
P1M0                              00000006
P1M1                              00000007
PCL                               00000002
PCLATH                            0000000A
PCON                              0000008E
PDC0                              00000000
PDC1                              00000001
PDC2                              00000002
PDC3                              00000003
PDC4                              00000004
PDC5                              00000005
PDC6                              00000006
PEIE                              00000006
PIE1                              0000008C
PIE2                              0000008D
PIR1                              0000000C
PIR2                              0000000D
PORTA                             00000005
PORTB                             00000006
PORTC                             00000007
PR2                               00000092
PRSEN                             00000007
PS0                               00000000
PS1                               00000001
PS2                               00000002
gpasm-1.4.0 #1107 (May  9 2015) build/default   1-10-2017  21:38:28         PAGE 44


SYMBOL TABLE
  LABEL                             VALUE 

PSA                               00000003
PSAVE                             00000070
PSSAC0                            00000002
PSSAC1                            00000003
PSSBD0                            00000000
PSSBD1                            00000001
PSTRCON                           0000019D
PULSR                             00000002
PULSS                             00000003
PWM1CON                           0000001C
R                                 00000002
RA0                               00000000
RA1                               00000001
RA2                               00000002
RA3                               00000003
RA4                               00000004
RA5                               00000005
RABIE                             00000003
RABIF                             00000000
RB4                               00000004
RB5                               00000005
RB6                               00000006
RB7                               00000007
RC0                               00000000
RC1                               00000001
RC2                               00000002
RC3                               00000003
RC4                               00000004
RC5                               00000005
RC6                               00000006
RC7                               00000007
RCIDL                             00000006
RCIE                              00000005
RCIF                              00000005
RCREG                             0000001A
RCSTA                             00000018
RD                                00000000
READ_WRITE                        00000002
RP0                               00000005
RP1                               00000006
RX9                               00000006
RX9D                              00000000
R_NOT_W                           00000002
R_W                               00000002
S                                 00000003
SBOREN                            00000004
SCKP                              00000004
SCS                               00000000
SENB                              00000003
SENDB                             00000003
SMP                               00000007
SPBRG                             00000099
SPBRGH                            0000009A
gpasm-1.4.0 #1107 (May  9 2015) build/default   1-10-2017  21:38:28         PAGE 45


SYMBOL TABLE
  LABEL                             VALUE 

SPEN                              00000007
SR0                               00000006
SR1                               00000007
SRCON                             0000019E
SREN                              00000005
SSAVE                             00000071
SSPADD                            00000093
SSPBUF                            00000013
SSPCON                            00000014
SSPEN                             00000005
SSPIE                             00000003
SSPIF                             00000003
SSPM0                             00000000
SSPM1                             00000001
SSPM2                             00000002
SSPM3                             00000003
SSPMSK                            00000093
SSPOV                             00000006
SSPSTAT                           00000094
STATUS                            00000003
STK00                             0000007F
STK01                             0000007E
STK02                             0000007D
STK03                             0000007C
STK04                             0000007B
STK05                             0000007A
STK06                             00000079
STK07                             00000078
STK08                             00000077
STK09                             00000076
STK10                             00000075
STK11                             00000074
STK12                             00000073
STRA                              00000000
STRB                              00000001
STRC                              00000002
STRD                              00000003
STRSYNC                           00000004
SWDTEN                            00000000
SYNC                              00000004
T0CS                              00000005
T0IE                              00000005
T0IF                              00000002
T0SE                              00000004
T1CKPS0                           00000004
T1CKPS1                           00000005
T1CON                             00000010
T1GINV                            00000007
T1GSS                             00000001
T1IE                              00000000
T1IF                              00000000
T1OSCEN                           00000003
T2CKPS0                           00000000
gpasm-1.4.0 #1107 (May  9 2015) build/default   1-10-2017  21:38:28         PAGE 46


SYMBOL TABLE
  LABEL                             VALUE 

T2CKPS1                           00000001
T2CON                             00000012
T2IE                              00000001
T2IF                              00000001
TMR0                              00000001
TMR1                              0000000E
TMR1CS                            00000001
TMR1GE                            00000006
TMR1H                             0000000F
TMR1IE                            00000000
TMR1IF                            00000000
TMR1L                             0000000E
TMR1ON                            00000000
TMR2                              00000011
TMR2IE                            00000001
TMR2IF                            00000001
TMR2ON                            00000002
TOUTPS0                           00000003
TOUTPS1                           00000004
TOUTPS2                           00000005
TOUTPS3                           00000006
TRISA                             00000085
TRISA0                            00000000
TRISA1                            00000001
TRISA2                            00000002
TRISA3                            00000003
TRISA4                            00000004
TRISA5                            00000005
TRISB                             00000086
TRISB4                            00000004
TRISB5                            00000005
TRISB6                            00000006
TRISB7                            00000007
TRISC                             00000087
TRISC0                            00000000
TRISC1                            00000001
TRISC2                            00000002
TRISC3                            00000003
TRISC4                            00000004
TRISC5                            00000005
TRISC6                            00000006
TRISC7                            00000007
TRMT                              00000001
TUN0                              00000000
TUN1                              00000001
TUN2                              00000002
TUN3                              00000003
TUN4                              00000004
TX9                               00000006
TX9D                              00000000
TXEN                              00000005
TXIE                              00000004
TXIF                              00000004
gpasm-1.4.0 #1107 (May  9 2015) build/default   1-10-2017  21:38:28         PAGE 47


SYMBOL TABLE
  LABEL                             VALUE 

TXREG                             00000019
TXSTA                             00000098
UA                                00000001
ULPWUE                            00000005
VCFG                              00000006
VP6EN                             00000004
VR0                               00000000
VR1                               00000001
VR2                               00000002
VR3                               00000003
VRCON                             00000118
VRR                               00000005
W                                 00000000
WCOL                              00000007
WDTCON                            00000097
WDTPS0                            00000001
WDTPS1                            00000002
WDTPS2                            00000003
WDTPS3                            00000004
WPU                               00000095
WPU0                              00000000
WPU1                              00000001
WPU2                              00000002
WPU4                              00000004
WPU5                              00000005
WPUA                              00000095
WPUA0                             00000000
WPUA1                             00000001
WPUA2                             00000002
WPUA4                             00000004
WPUA5                             00000005
WPUB                              00000115
WPUB4                             00000004
WPUB5                             00000005
WPUB6                             00000006
WPUB7                             00000007
WR                                00000001
WREN                              00000002
WRERR                             00000003
WSAVE                             00000072
WUE                               00000001
Z                                 00000002
_00106_DS_                        0000005D
_00108_DS_                        0000001F
_00111_DS_                        00000063
_00113_DS_                        0000008D
_00114_DS_                        000000A8
_00117_DS_                        000000AE
_00134_DS_                        00000057
_00140_DS_                        000000FD
_00145_DS_                        00000140
_00155_DS_                        00000183
_00160_DS_                        00000209
gpasm-1.4.0 #1107 (May  9 2015) build/default   1-10-2017  21:38:28         PAGE 48


SYMBOL TABLE
  LABEL                             VALUE 

_00164_DS_                        00000224
_00167_DS_                        000002B7
_00169_DS_                        00000087
_00171_DS_                        0000022B
_00248_DS_                        00000097
_00249_DS_                        000000A1
_00250_DS_                        000000AB
_00251_DS_                        000000B5
_00252_DS_                        000000C2
_00253_DS_                        000000CC
_00254_DS_                        000000D6
_00255_DS_                        000000E0
_00256_DS_                        00000105
_00257_DS_                        0000010F
_00258_DS_                        00000119
_00259_DS_                        00000123
_00260_DS_                        00000148
_00261_DS_                        00000152
_00262_DS_                        0000015C
_00263_DS_                        00000166
_00271_DS_                        00000027
_00272_DS_                        0000004B
_00278_DS_                        00000056
_00282_DS_                        00000006
_00284_DS_                        00000078
_00291_DS_                        00000052
_00297_DS_                        0000004E
_00301_DS_                        0000000D
_00302_DS_                        00000004
_00304_DS_                        00000070
_00309_DS_                        0000004A
_00316_DS_                        00000008
_00318_DS_                        0000002B
_00323_DS_                        0000002C
_00328_DS_                        0000000D
_00330_DS_                        00000034
_ADCON0                           00000000
_ADCON0bits                       00000000
_ADCON1                           00000000
_ADCON1bits                       00000000
_ADRESH                           00000000
_ADRESL                           00000000
_ANSEL                            00000000
_ANSELH                           00000000
_ANSELHbits                       00000000
_ANSELbits                        00000000
_BAUDCTL                          00000000
_BAUDCTLbits                      00000000
_BOD_NSLEEP                       00003EFF
_BOD_OFF                          00003CFF
_BOD_ON                           00003FFF
_BOD_SBODEN                       00003DFF
_BOREN_NSLEEP                     00003EFF
gpasm-1.4.0 #1107 (May  9 2015) build/default   1-10-2017  21:38:28         PAGE 49


SYMBOL TABLE
  LABEL                             VALUE 

_BOREN_OFF                        00003CFF
_BOREN_ON                         00003FFF
_BOREN_SBODEN                     00003DFF
_BOR_NSLEEP                       00003EFF
_BOR_OFF                          00003CFF
_BOR_ON                           00003FFF
_BOR_SBODEN                       00003DFF
_CCP1CON                          00000000
_CCP1CONbits                      00000000
_CCPR                             00000000
_CCPR1H                           00000000
_CCPR1L                           00000000
_CM1CON0                          00000000
_CM1CON0bits                      00000000
_CM2CON0                          00000000
_CM2CON0bits                      00000000
_CM2CON1                          00000000
_CM2CON1bits                      00000000
_CONFIG                           00002007
_CPD_OFF                          00003FFF
_CPD_ON                           00003F7F
_CP_OFF                           00003FFF
_CP_ON                            00003FBF
_DEVID1                           00002006
_ECCPAS                           00000000
_ECCPASbits                       00000000
_EC_OSC                           00003FFB
_EEADR                            00000000
_EEADRH                           00000000
_EECON1                           00000000
_EECON1bits                       00000000
_EECON2                           00000000
_EEDAT                            00000000
_EEDATA                           00000000
_EEDATH                           00000000
_EXTRC                            00003FFF
_EXTRCIO                          00003FFE
_EXTRC_OSC_CLKOUT                 00003FFF
_EXTRC_OSC_NOCLKOUT               00003FFE
_FCMEN_OFF                        000037FF
_FCMEN_ON                         00003FFF
_FOSC_EC                          00003FFB
_FOSC_EXTRCCLK                    00003FFF
_FOSC_EXTRCIO                     00003FFE
_FOSC_HS                          00003FFA
_FOSC_INTRCCLK                    00003FFD
_FOSC_INTRCIO                     00003FFC
_FOSC_LP                          00003FF8
_FOSC_XT                          00003FF9
_FSR                              00000000
_HS_OSC                           00003FFA
_IDLOC0                           00002000
_IDLOC1                           00002001
gpasm-1.4.0 #1107 (May  9 2015) build/default   1-10-2017  21:38:28         PAGE 50


SYMBOL TABLE
  LABEL                             VALUE 

_IDLOC2                           00002002
_IDLOC3                           00002003
_IESO_OFF                         00003BFF
_IESO_ON                          00003FFF
_INDF                             00000000
_INTCON                           00000000
_INTCONbits                       00000000
_INTOSC                           00003FFD
_INTOSCIO                         00003FFC
_INTRC_OSC_CLKOUT                 00003FFD
_INTRC_OSC_NOCLKOUT               00003FFC
_IOC                              00000000
_IOCA                             00000000
_IOCAbits                         00000000
_IOCB                             00000000
_IOCBbits                         00000000
_IOCbits                          00000000
_LP_OSC                           00003FF8
_MCLRE_OFF                        00003FDF
_MCLRE_ON                         00003FFF
_MSK                              00000000
_MSKbits                          00000000
_OPTION_REG                       00000000
_OPTION_REGbits                   00000000
_OSCCON                           00000000
_OSCCONbits                       00000000
_OSCTUNE                          00000000
_OSCTUNEbits                      00000000
_PCL                              00000000
_PCLATH                           00000000
_PCON                             00000000
_PCONbits                         00000000
_PIE1                             00000000
_PIE1bits                         00000000
_PIE2                             00000000
_PIE2bits                         00000000
_PIR1                             00000000
_PIR1bits                         00000000
_PIR2                             00000000
_PIR2bits                         00000000
_PORTA                            00000000
_PORTAbits                        00000000
_PORTB                            00000000
_PORTBbits                        00000000
_PORTC                            00000000
_PORTCbits                        00000000
_PR2                              00000000
_PSTRCON                          00000000
_PSTRCONbits                      00000000
_PWM1CON                          00000000
_PWM1CONbits                      00000000
_PWRTE_OFF                        00003FFF
_PWRTE_ON                         00003FEF
gpasm-1.4.0 #1107 (May  9 2015) build/default   1-10-2017  21:38:28         PAGE 51


SYMBOL TABLE
  LABEL                             VALUE 

_RCREG                            00000000
_RCSTA                            00000000
_RCSTAbits                        00000000
_SPBRG                            00000000
_SPBRGH                           00000000
_SPBRGHbits                       00000000
_SPBRGbits                        00000000
_SP_send                          00000000
_SP_send_error                    00000000
_SP_send_errorP                   00000000
_SRCON                            00000000
_SRCONbits                        00000000
_SSPADD                           00000000
_SSPBUF                           00000000
_SSPCON                           00000000
_SSPCONbits                       00000000
_SSPMSK                           00000000
_SSPMSKbits                       00000000
_SSPSTAT                          00000000
_SSPSTATbits                      00000000
_STATUS                           00000000
_STATUSbits                       00000000
_S_main__SP_send_001C             0000001C
_S_main__SP_send_0026             00000026
_S_main__SP_send_error_0021       00000021
_S_main__circBufPush_0022         00000022
_S_main__dec_to_ascii_001C        0000001C
_S_main__dec_to_ascii_0039        00000039
_S_main__dec_to_ascii_0076        00000076
_S_main__main_0005                00000005
_S_main__main_002E                0000002E
_S_main__main_0034                00000034
_S_main__main_0044                00000044
_S_main__main_006D                0000006D
_S_main__main_0073                00000073
_S_main__main_0083                00000083
_S_main__main_00F1                000000F1
_S_main__main_0134                00000134
_S_main__main_0177                00000177
_S_main__main_0198                00000198
_S_main__main_01F2                000001F2
_S_main__main_01F8                000001F8
_S_main__main_0208                00000208
_S_main__main_0232                00000232
_S_main__main_025B                0000025B
_S_main__main_026B                0000026B
_S_main__main_0291                00000291
_S_main__main_02A1                000002A1
_S_main__main_02B6                000002B6
_S_main__uint8_to_ascii_001B      0000001B
_S_main__uint8_to_ascii_0033      00000033
_S_main__uint8_to_ascii_006E      0000006E
_T1CON                            00000000
gpasm-1.4.0 #1107 (May  9 2015) build/default   1-10-2017  21:38:28         PAGE 52


SYMBOL TABLE
  LABEL                             VALUE 

_T1CONbits                        00000000
_T2CON                            00000000
_T2CONbits                        00000000
_TMR0                             00000000
_TMR1                             00000000
_TMR1H                            00000000
_TMR1L                            00000000
_TMR2                             00000000
_TRISA                            00000000
_TRISAbits                        00000000
_TRISB                            00000000
_TRISBbits                        00000000
_TRISC                            00000000
_TRISCbits                        00000000
_TXREG                            00000000
_TXSTA                            00000000
_TXSTAbits                        00000000
_VRCON                            00000000
_VRCONbits                        00000000
_WDTCON                           00000000
_WDTCONbits                       00000000
_WDTE_OFF                         00003FF7
_WDTE_ON                          00003FFF
_WDT_OFF                          00003FF7
_WDT_ON                           00003FFF
_WPU                              00000000
_WPUA                             00000000
_WPUAbits                         00000000
_WPUB                             00000000
_WPUBbits                         00000000
_WPUbits                          00000000
_XT_OSC                           00003FF9
__16F690                          00000001
__CODE_END                        00000FFF
__CODE_START                      00000000
__COMMON_RAM_END                  0000007F
__COMMON_RAM_START                00000070
__EEPROM_END                      000021FF
__EEPROM_START                    00002100
__VECTOR_INT                      00000004
__VECTOR_RESET                    00000000
___sdcc_saved_fsr                 00000000
__divuchar                        00000000
__divuint                         00000000
__gptrget1                        00000000
__moduchar                        00000000
__moduint                         00000000
__mulchar                         00000000
__sdcc_gsinit_startup             00000000
__sdcc_interrupt                  00000004
_bitfield                         00000000
_bt                               00000000
_buf                              00000000
gpasm-1.4.0 #1107 (May  9 2015) build/default   1-10-2017  21:38:28         PAGE 53


SYMBOL TABLE
  LABEL                             VALUE 

_buf_err                          00000000
_buf_head                         00000000
_buf_tail                         00000000
_bw                               00000000
_circBufPush                      00000000
_dec_to_ascii                     00000000
_dec_to_ascii_number_1_30         0000002B
_enter                            00000000
_init                             00000000
_int_err                          00000000
_int_error_cnt                    00000000
_main                             00000000
_pie1                             00000000
_pie2                             00000000
_pir1                             00000000
_pir2                             00000000
_puint8_to_ascii                  00000000
_receive_intr                     00000004
_strV0                            00000000
_strV1                            00000000
_strVF                            00000000
_strt                             00000000
_strt1                            00000000
_strw                             00000000
_strw1                            00000000
_sync                             00000000
_t                                00000000
_t1                               00000000
_t2                               00000000
_tab                              00000000
_uint8_to_ascii                   00000000
_uint8_to_ascii_number_1_34       0000002F
_w                                00000000
_w1                               00000000
_w2                               00000000
r0x104F                           00000025
r0x1050                           00000024
r0x1051                           00000023
r0x1052                           00000026
r0x1053                           00000027
r0x1054                           00000028
r0x1055                           00000029
r0x1056                           0000002A
r0x1057                           0000000B
r0x1058                           0000000C
r0x1059                           0000000E
r0x105A                           0000000D
r0x105B                           0000000F
r0x105C                           0000001D
r0x105D                           0000001C
r0x105E                           0000001B
r0x105F                           0000001E
r0x1060                           0000001F
gpasm-1.4.0 #1107 (May  9 2015) build/default   1-10-2017  21:38:28         PAGE 54


SYMBOL TABLE
  LABEL                             VALUE 

r0x1061                           00000020
r0x1062                           00000021
r0x1063                           00000022
r0x1064                           00000016
r0x1065                           00000017
r0x1066                           00000018
r0x1067                           00000019
r0x1068                           0000001A
r0x1069                           00000011
r0x106A                           00000010
r0x106B                           00000012
r0x106C                           00000013
r0x106D                           00000014
r0x1070                           00000015
r0x1071                           00000002
r0x1072                           00000003
r0x1073                           00000005
r0x1074                           00000004
r0x1075                           00000006
r0x1076                           00000007
r0x1077                           00000008
r0x1078                           00000009
r0x1079                           0000000A
r0x107A                           00000000
r0x107B                           00000001

Errors   :     0
Warnings :     0 reported,     0 suppressed
Messages :     0 reported,     0 suppressed

