gpasm-1.4.0 #1107 (May  9 2015) build/default   1-12-2017  22:05:14         PAGE  1


LOC    OBJECT CODE    LINE  SOURCE TEXT
  VALUE

                      00001 ;--------------------------------------------------------
                      00002 ; File Created by SDCC : free open source ANSI-C Compiler
                      00003 ; Version 3.6.0 #9615 (Linux)
                      00004 ;--------------------------------------------------------
                      00005 ; PIC port for the 14-bit core
                      00006 ;--------------------------------------------------------
                      00007 ;       .file   "main.c"
                      00008         list    p=16f690
                      00009         radix dec
                      00010         include "p16f690.inc"
                      00001         LIST
                      00002 
                      00003 ;==========================================================================
                      00004 ; Build date : Aug 07 2014
                      00005 ;  MPASM PIC16F690 processor include
                      00006 ; 
                      00007 ;  (c) Copyright 1999-2014 Microchip Technology, All rights reserved
                      00008 ;==========================================================================
                      00009 
                      00757         LIST
                      00011 ;--------------------------------------------------------
                      00012 ; config word(s)
                      00013 ;--------------------------------------------------------
2007   0000           00014         __config 0x3fd4
                      00015 ;--------------------------------------------------------
                      00016 ; external declarations
                      00017 ;--------------------------------------------------------
  0000                00018         extern  _init
  0000                00019         extern  _dec_to_ascii_buf
  0000                00020         extern  _SP_send_buf
  0000                00021         extern  _SP_send
  0000                00022         extern  _uint8_send
  0000                00023         extern  _STATUSbits
  0000                00024         extern  _PORTAbits
  0000                00025         extern  _PORTBbits
  0000                00026         extern  _PORTCbits
  0000                00027         extern  _INTCONbits
  0000                00028         extern  _PIR1bits
  0000                00029         extern  _PIR2bits
  0000                00030         extern  _T1CONbits
  0000                00031         extern  _T2CONbits
  0000                00032         extern  _SSPCONbits
  0000                00033         extern  _CCP1CONbits
  0000                00034         extern  _RCSTAbits
  0000                00035         extern  _PWM1CONbits
  0000                00036         extern  _ECCPASbits
  0000                00037         extern  _ADCON0bits
  0000                00038         extern  _OPTION_REGbits
  0000                00039         extern  _TRISAbits
  0000                00040         extern  _TRISBbits
  0000                00041         extern  _TRISCbits
  0000                00042         extern  _PIE1bits
  0000                00043         extern  _PIE2bits
gpasm-1.4.0 #1107 (May  9 2015) build/default   1-12-2017  22:05:14         PAGE  2


LOC    OBJECT CODE    LINE  SOURCE TEXT
  VALUE

  0000                00044         extern  _PCONbits
  0000                00045         extern  _OSCCONbits
  0000                00046         extern  _OSCTUNEbits
  0000                00047         extern  _MSKbits
  0000                00048         extern  _SSPMSKbits
  0000                00049         extern  _SSPSTATbits
  0000                00050         extern  _WPUbits
  0000                00051         extern  _WPUAbits
  0000                00052         extern  _IOCbits
  0000                00053         extern  _IOCAbits
  0000                00054         extern  _WDTCONbits
  0000                00055         extern  _TXSTAbits
  0000                00056         extern  _SPBRGbits
  0000                00057         extern  _SPBRGHbits
  0000                00058         extern  _BAUDCTLbits
  0000                00059         extern  _ADCON1bits
  0000                00060         extern  _WPUBbits
  0000                00061         extern  _IOCBbits
  0000                00062         extern  _VRCONbits
  0000                00063         extern  _CM1CON0bits
  0000                00064         extern  _CM2CON0bits
  0000                00065         extern  _CM2CON1bits
  0000                00066         extern  _ANSELbits
  0000                00067         extern  _ANSELHbits
  0000                00068         extern  _EECON1bits
  0000                00069         extern  _PSTRCONbits
  0000                00070         extern  _SRCONbits
  0000                00071         extern  _INDF
  0000                00072         extern  _TMR0
  0000                00073         extern  _PCL
  0000                00074         extern  _STATUS
  0000                00075         extern  _FSR
  0000                00076         extern  _PORTA
  0000                00077         extern  _PORTB
  0000                00078         extern  _PORTC
  0000                00079         extern  _PCLATH
  0000                00080         extern  _INTCON
  0000                00081         extern  _PIR1
  0000                00082         extern  _PIR2
  0000                00083         extern  _TMR1
  0000                00084         extern  _TMR1L
  0000                00085         extern  _TMR1H
  0000                00086         extern  _T1CON
  0000                00087         extern  _TMR2
  0000                00088         extern  _T2CON
  0000                00089         extern  _SSPBUF
  0000                00090         extern  _SSPCON
  0000                00091         extern  _CCPR
  0000                00092         extern  _CCPR1L
  0000                00093         extern  _CCPR1H
  0000                00094         extern  _CCP1CON
  0000                00095         extern  _RCSTA
  0000                00096         extern  _TXREG
gpasm-1.4.0 #1107 (May  9 2015) build/default   1-12-2017  22:05:14         PAGE  3


LOC    OBJECT CODE    LINE  SOURCE TEXT
  VALUE

  0000                00097         extern  _RCREG
  0000                00098         extern  _PWM1CON
  0000                00099         extern  _ECCPAS
  0000                00100         extern  _ADRESH
  0000                00101         extern  _ADCON0
  0000                00102         extern  _OPTION_REG
  0000                00103         extern  _TRISA
  0000                00104         extern  _TRISB
  0000                00105         extern  _TRISC
  0000                00106         extern  _PIE1
  0000                00107         extern  _PIE2
  0000                00108         extern  _PCON
  0000                00109         extern  _OSCCON
  0000                00110         extern  _OSCTUNE
  0000                00111         extern  _PR2
  0000                00112         extern  _MSK
  0000                00113         extern  _SSPADD
  0000                00114         extern  _SSPMSK
  0000                00115         extern  _SSPSTAT
  0000                00116         extern  _WPU
  0000                00117         extern  _WPUA
  0000                00118         extern  _IOC
  0000                00119         extern  _IOCA
  0000                00120         extern  _WDTCON
  0000                00121         extern  _TXSTA
  0000                00122         extern  _SPBRG
  0000                00123         extern  _SPBRGH
  0000                00124         extern  _BAUDCTL
  0000                00125         extern  _ADRESL
  0000                00126         extern  _ADCON1
  0000                00127         extern  _EEDAT
  0000                00128         extern  _EEDATA
  0000                00129         extern  _EEADR
  0000                00130         extern  _EEDATH
  0000                00131         extern  _EEADRH
  0000                00132         extern  _WPUB
  0000                00133         extern  _IOCB
  0000                00134         extern  _VRCON
  0000                00135         extern  _CM1CON0
  0000                00136         extern  _CM2CON0
  0000                00137         extern  _CM2CON1
  0000                00138         extern  _ANSEL
  0000                00139         extern  _ANSELH
  0000                00140         extern  _EECON1
  0000                00141         extern  _EECON2
  0000                00142         extern  _PSTRCON
  0000                00143         extern  _SRCON
  0000                00144         extern  ___sdcc_saved_fsr
  0000                00145         extern  __mulchar
  0000                00146         extern  __sdcc_gsinit_startup
                      00147 ;--------------------------------------------------------
                      00148 ; global declarations
                      00149 ;--------------------------------------------------------
gpasm-1.4.0 #1107 (May  9 2015) build/default   1-12-2017  22:05:14         PAGE  4


LOC    OBJECT CODE    LINE  SOURCE TEXT
  VALUE

  0000                00150         global  _circBufPush
  0000                00151         global  _receive_intr
  0000                00152         global  _main
  0000                00153         global  _bitfield
  0000                00154         global  _w
  0000                00155         global  _t
  0000                00156         global  _w1
  0000                00157         global  _t1
  0000                00158         global  _bw
  0000                00159         global  _bt
  0000                00160         global  _buf
  0000                00161         global  _buf_head
  0000                00162         global  _buf_tail
  0000                00163         global  _int_error_cnt
  0000                00164         global  _strV0
  0000                00165         global  _strV1
  0000                00166         global  _strVF
  0000                00167         global  _strw
  0000                00168         global  _strt
  0000                00169         global  _strw1
  0000                00170         global  _strt1
  0000                00171         global  _tab
  0000                00172         global  _enter
  0000                00173         global  _sync
  0000                00174         global  _int_err
  0000                00175         global  _buf_err
  0000                00176         global  _pir1
  0000                00177         global  _pir2
  0000                00178         global  _pie1
  0000                00179         global  _pie2
  0000                00180         global  _tim0_owf
                      00181 
  0000                00182         global PSAVE
  0000                00183         global SSAVE
  0000                00184         global WSAVE
  0000                00185         global STK12
  0000                00186         global STK11
  0000                00187         global STK10
  0000                00188         global STK09
  0000                00189         global STK08
  0000                00190         global STK07
  0000                00191         global STK06
  0000                00192         global STK05
  0000                00193         global STK04
  0000                00194         global STK03
  0000                00195         global STK02
  0000                00196         global STK01
  0000                00197         global STK00
                      00198 
                      00199 sharebank udata_ovr 0x0070
0070                  00200 PSAVE   res 1
0071                  00201 SSAVE   res 1
0072                  00202 WSAVE   res 1
gpasm-1.4.0 #1107 (May  9 2015) build/default   1-12-2017  22:05:14         PAGE  5


LOC    OBJECT CODE    LINE  SOURCE TEXT
  VALUE

0073                  00203 STK12   res 1
0074                  00204 STK11   res 1
0075                  00205 STK10   res 1
0076                  00206 STK09   res 1
0077                  00207 STK08   res 1
0078                  00208 STK07   res 1
0079                  00209 STK06   res 1
007A                  00210 STK05   res 1
007B                  00211 STK04   res 1
007C                  00212 STK03   res 1
007D                  00213 STK02   res 1
007E                  00214 STK01   res 1
007F                  00215 STK00   res 1
                      00216 
                      00217 ;--------------------------------------------------------
                      00218 ; global definitions
                      00219 ;--------------------------------------------------------
                      00220 UD_main_0       udata
0000                  00221 _bitfield       res     1
                      00222 
                      00223 UD_main_1       udata
0000                  00224 _bw     res     20
                      00225 
                      00226 UD_main_2       udata
0000                  00227 _bt     res     20
                      00228 
                      00229 UD_main_3       udata
0000                  00230 _buf    res     16
                      00231 
                      00232 ;--------------------------------------------------------
                      00233 ; absolute symbol definitions
                      00234 ;--------------------------------------------------------
                      00235 ;--------------------------------------------------------
                      00236 ; compiler-defined variables
                      00237 ;--------------------------------------------------------
                      00238 UDL_main_0      udata
0000                  00239 r0x1053 res     1
0001                  00240 r0x1054 res     1
0002                  00241 r0x104A res     1
0003                  00242 r0x104B res     1
0004                  00243 r0x104D res     1
0005                  00244 r0x104C res     1
0006                  00245 r0x104E res     1
0007                  00246 r0x104F res     1
0008                  00247 r0x1050 res     1
0009                  00248 r0x1051 res     1
000A                  00249 r0x1052 res     1
000B                  00250 r0x1045 res     1
000C                  00251 r0x1046 res     1
000D                  00252 r0x1048 res     1
000E                  00253 r0x1047 res     1
000F                  00254 r0x1049 res     1
                      00255 ;--------------------------------------------------------
gpasm-1.4.0 #1107 (May  9 2015) build/default   1-12-2017  22:05:14         PAGE  6


LOC    OBJECT CODE    LINE  SOURCE TEXT
  VALUE

                      00256 ; initialized data
                      00257 ;--------------------------------------------------------
                      00258 
                      00259 ID_main_0       idata
0000                  00260 _w
0000   00 00          00261         db      0x00, 0x00
                      00262 
                      00263 
                      00264 ID_main_1       idata
0000                  00265 _t
0000   00 00          00266         db      0x00, 0x00
                      00267 
                      00268 
                      00269 ID_main_2       idata
0000                  00270 _w1
0000   00 00          00271         db      0x00, 0x00
                      00272 
                      00273 
                      00274 ID_main_3       idata
0000                  00275 _t1
0000   00 00          00276         db      0x00, 0x00
                      00277 
                      00278 
                      00279 ID_main_4       idata
0000                  00280 _buf_head
0000   00             00281         db      0x00
                      00282 
                      00283 
                      00284 ID_main_5       idata
0000                  00285 _buf_tail
0000   00             00286         db      0x00
                      00287 
                      00288 
                      00289 ID_main_6       idata
0000                  00290 _int_error_cnt
0000   00             00291         db      0x00
                      00292 
                      00293 
                      00294 ID_main_7       code
0000                  00295 _strV0
0000   3430           00296         retlw 0x30
0001   3420           00297         retlw 0x20
0002   340A           00298         retlw 0x0a
0003   3400           00299         retlw 0x00
                      00300 
                      00301 
                      00302 ID_main_8       code
0000                  00303 _strV1
0000   3431           00304         retlw 0x31
0001   3420           00305         retlw 0x20
0002   340A           00306         retlw 0x0a
0003   3400           00307         retlw 0x00
                      00308 
gpasm-1.4.0 #1107 (May  9 2015) build/default   1-12-2017  22:05:14         PAGE  7


LOC    OBJECT CODE    LINE  SOURCE TEXT
  VALUE

                      00309 
                      00310 ID_main_9       code
0000                  00311 _strVF
0000   3446           00312         retlw 0x46
0001   3420           00313         retlw 0x20
0002   340A           00314         retlw 0x0a
0003   3400           00315         retlw 0x00
                      00316 
                      00317 
                      00318 ID_main_10      code
0000                  00319 _strw
0000   3477           00320         retlw 0x77
0001   343A           00321         retlw 0x3a
0002   3420           00322         retlw 0x20
0003   3400           00323         retlw 0x00
                      00324 
                      00325 
                      00326 ID_main_11      code
0000                  00327 _strt
0000   3474           00328         retlw 0x74
0001   343A           00329         retlw 0x3a
0002   3420           00330         retlw 0x20
0003   3400           00331         retlw 0x00
                      00332 
                      00333 
                      00334 ID_main_12      code
0000                  00335 _strw1
0000   3477           00336         retlw 0x77
0001   3431           00337         retlw 0x31
0002   343A           00338         retlw 0x3a
0003   3420           00339         retlw 0x20
0004   3400           00340         retlw 0x00
                      00341 
                      00342 
                      00343 ID_main_13      code
0000                  00344 _strt1
0000   3474           00345         retlw 0x74
0001   3431           00346         retlw 0x31
0002   343A           00347         retlw 0x3a
0003   3420           00348         retlw 0x20
0004   3400           00349         retlw 0x00
                      00350 
                      00351 
                      00352 ID_main_14      code
0000                  00353 _tab
0000   3409           00354         retlw 0x09
0001   3400           00355         retlw 0x00
                      00356 
                      00357 
                      00358 ID_main_15      code
0000                  00359 _enter
0000   340A           00360         retlw 0x0a
0001   3400           00361         retlw 0x00
gpasm-1.4.0 #1107 (May  9 2015) build/default   1-12-2017  22:05:14         PAGE  8


LOC    OBJECT CODE    LINE  SOURCE TEXT
  VALUE

                      00362 
                      00363 
                      00364 ID_main_16      code
0000                  00365 _sync
0000   3453           00366         retlw 0x53
0001   3459           00367         retlw 0x59
0002   344E           00368         retlw 0x4e
0003   3443           00369         retlw 0x43
0004   340A           00370         retlw 0x0a
0005   3400           00371         retlw 0x00
                      00372 
                      00373 
                      00374 ID_main_17      code
0000                  00375 _int_err
0000   3449           00376         retlw 0x49
0001   344E           00377         retlw 0x4e
0002   3454           00378         retlw 0x54
0003   3420           00379         retlw 0x20
0004   3445           00380         retlw 0x45
0005   3452           00381         retlw 0x52
0006   3452           00382         retlw 0x52
0007   340A           00383         retlw 0x0a
0008   3400           00384         retlw 0x00
                      00385 
                      00386 
                      00387 ID_main_18      code
0000                  00388 _buf_err
0000   3442           00389         retlw 0x42
0001   3455           00390         retlw 0x55
0002   3446           00391         retlw 0x46
0003   3446           00392         retlw 0x46
0004   3445           00393         retlw 0x45
0005   3452           00394         retlw 0x52
0006   3420           00395         retlw 0x20
0007   344F           00396         retlw 0x4f
0008   3457           00397         retlw 0x57
0009   3445           00398         retlw 0x45
000A   3452           00399         retlw 0x52
000B   3446           00400         retlw 0x46
000C   344C           00401         retlw 0x4c
000D   344F           00402         retlw 0x4f
000E   3457           00403         retlw 0x57
000F   340A           00404         retlw 0x0a
0010   3400           00405         retlw 0x00
                      00406 
                      00407 
                      00408 ID_main_19      code
0000                  00409 _pir1
0000   3450           00410         retlw 0x50
0001   3449           00411         retlw 0x49
0002   3452           00412         retlw 0x52
0003   3431           00413         retlw 0x31
0004   343A           00414         retlw 0x3a
gpasm-1.4.0 #1107 (May  9 2015) build/default   1-12-2017  22:05:14         PAGE  9


LOC    OBJECT CODE    LINE  SOURCE TEXT
  VALUE

0005   3420           00415         retlw 0x20
0006   3400           00416         retlw 0x00
                      00417 
                      00418 
                      00419 ID_main_20      code
0000                  00420 _pir2
0000   3450           00421         retlw 0x50
0001   3449           00422         retlw 0x49
0002   3452           00423         retlw 0x52
0003   3432           00424         retlw 0x32
0004   343A           00425         retlw 0x3a
0005   3420           00426         retlw 0x20
0006   3400           00427         retlw 0x00
                      00428 
                      00429 
                      00430 ID_main_21      code
0000                  00431 _pie1
0000   3450           00432         retlw 0x50
0001   3449           00433         retlw 0x49
0002   3445           00434         retlw 0x45
0003   3431           00435         retlw 0x31
0004   343A           00436         retlw 0x3a
0005   3420           00437         retlw 0x20
0006   3400           00438         retlw 0x00
                      00439 
                      00440 
                      00441 ID_main_22      code
0000                  00442 _pie2
0000   3450           00443         retlw 0x50
0001   3449           00444         retlw 0x49
0002   3445           00445         retlw 0x45
0003   3432           00446         retlw 0x32
0004   343A           00447         retlw 0x3a
0005   3420           00448         retlw 0x20
0006   3400           00449         retlw 0x00
                      00450 
                      00451 
                      00452 ID_main_23      code
0000                  00453 _tim0_owf
0000   3454           00454         retlw 0x54
0001   3449           00455         retlw 0x49
0002   344D           00456         retlw 0x4d
0003   3430           00457         retlw 0x30
0004   3420           00458         retlw 0x20
0005   344F           00459         retlw 0x4f
0006   3457           00460         retlw 0x57
0007   3446           00461         retlw 0x46
0008   340A           00462         retlw 0x0a
0009   3400           00463         retlw 0x00
                      00464 
                      00465 ;--------------------------------------------------------
                      00466 ; overlayable items in internal ram 
                      00467 ;--------------------------------------------------------
gpasm-1.4.0 #1107 (May  9 2015) build/default   1-12-2017  22:05:14         PAGE 10


LOC    OBJECT CODE    LINE  SOURCE TEXT
  VALUE

                      00468 ;       udata_ovr
                      00469 ;--------------------------------------------------------
                      00470 ; reset vector 
                      00471 ;--------------------------------------------------------
                      00472 STARTUP code 0x0000
0000   0000           00473         nop
0001   ????           00474         pagesel __sdcc_gsinit_startup
0002   2???           00475         goto    __sdcc_gsinit_startup
                      00476 ;--------------------------------------------------------
                      00477 ; interrupt and initialization code
                      00478 ;--------------------------------------------------------
                      00479 c_interrupt     code    0x0004
0004                  00480 __sdcc_interrupt:
                      00481 ;***
                      00482 ;  pBlock Stats: dbName = I
                      00483 ;***
                      00484 ;2 compiler assigned registers:
                      00485 ;   r0x1053
                      00486 ;   r0x1054
                      00487 ;; Starting pCode block
0004                  00488 _receive_intr:
                      00489 ; 0 exit points
                      00490 ;       .line   106; "main.c"   void receive_intr() __interrupt 0 {
0004   00??           00491         MOVWF   WSAVE
0005   0E03           00492         SWAPF   STATUS,W
0006   0183           00493         CLRF    STATUS
0007   00??           00494         MOVWF   SSAVE
0008   080A           00495         MOVF    PCLATH,W
0009   018A           00496         CLRF    PCLATH
000A   00??           00497         MOVWF   PSAVE
000B   0804           00498         MOVF    FSR,W
000C   ???? ????      00499         BANKSEL ___sdcc_saved_fsr
000E   00??           00500         MOVWF   ___sdcc_saved_fsr
                      00501 ;       .line   108; "main.c"   if(T0IF){
000F   ???? ????      00502         BANKSEL _INTCONbits
0011   1D??           00503         BTFSS   _INTCONbits,2
0012   2???           00504         GOTO    _00106_DS_
                      00505 ;       .line   109; "main.c"   T0IF = 0;
0013   11??           00506         BCF     _INTCONbits,2
                      00507 ;       .line   110; "main.c"   TMR0 = 0;       // Enable timer
0014   01??           00508         CLRF    _TMR0
0015                  00509 _00106_DS_:
                      00510 ;       .line   114; "main.c"   if(TXIF){
0015   ???? ????      00511         BANKSEL _PIR1bits
0017   1E??           00512         BTFSS   _PIR1bits,4
0018   2???           00513         GOTO    _00113_DS_
                      00514 ;       .line   116; "main.c"   if (buf_head == buf_tail){
0019   ???? ????      00515         BANKSEL _buf_tail
001B   08??           00516         MOVF    _buf_tail,W
001C   ???? ????      00517         BANKSEL _buf_head
001E   06??           00518         XORWF   _buf_head,W
001F   1D03           00519         BTFSS   STATUS,2
0020   2???           00520         GOTO    _00110_DS_
gpasm-1.4.0 #1107 (May  9 2015) build/default   1-12-2017  22:05:14         PAGE 11


LOC    OBJECT CODE    LINE  SOURCE TEXT
  VALUE

                      00521 ;       .line   117; "main.c"   TXIE = 0;
0021   ???? ????      00522         BANKSEL _PIE1bits
0023   12??           00523         BCF     _PIE1bits,4
0024   2???           00524         GOTO    _00113_DS_
0025                  00525 _00110_DS_:
                      00526 ;       .line   122; "main.c"   TXREG = buf[buf_tail];
0025   ???? ????      00527         BANKSEL _buf_tail
0027   08??           00528         MOVF    _buf_tail,W
0028   3E??           00529         ADDLW   (_buf + 0)
0029   ???? ????      00530         BANKSEL r0x1053
002B   00??           00531         MOVWF   r0x1053
002C   30??           00532         MOVLW   high (_buf + 0)
002D   1803           00533         BTFSC   STATUS,0
002E   3E01           00534         ADDLW   0x01
002F   00??           00535         MOVWF   r0x1054
0030   08??           00536         MOVF    r0x1053,W
0031   1283 1303      00537         BANKSEL FSR
0033   0084           00538         MOVWF   FSR
0034   1383           00539         BCF     STATUS,7
0035   ???? ????      00540         BANKSEL r0x1054
0037   18??           00541         BTFSC   r0x1054,0
0038   1783           00542         BSF     STATUS,7
0039   1283 1303      00543         BANKSEL INDF
003B   0800           00544         MOVF    INDF,W
003C   00??           00545         MOVWF   _TXREG
                      00546 ;       .line   123; "main.c"   buf[buf_tail] = 0;  // clear the data (optional)
003D   ???? ????      00547         BANKSEL r0x1053
003F   08??           00548         MOVF    r0x1053,W
0040   1283 1303      00549         BANKSEL FSR
0042   0084           00550         MOVWF   FSR
0043   1383           00551         BCF     STATUS,7
0044   ???? ????      00552         BANKSEL r0x1054
0046   18??           00553         BTFSC   r0x1054,0
0047   1783           00554         BSF     STATUS,7
0048   3000           00555         MOVLW   0x00
0049   1283 1303      00556         BANKSEL INDF
004B   0080           00557         MOVWF   INDF
                      00558 ;       .line   125; "main.c"   next = buf_tail + 1;
004C   ???? ????      00559         BANKSEL _buf_tail
004E   08??           00560         MOVF    _buf_tail,W
004F   ???? ????      00561         BANKSEL r0x1053
0051   00??           00562         MOVWF   r0x1053
0052   01??           00563         CLRF    r0x1054
0053   0A??           00564         INCF    r0x1053,F
0054   1903           00565         BTFSC   STATUS,2
0055   0A??           00566         INCF    r0x1054,F
                      00567 ;;signed compare: left < lit(0x10=16), size=2, mask=ffff
                      00568 ;       .line   126; "main.c"   if(next >= BUF_SIZE)
0056   08??           00569         MOVF    r0x1054,W
0057   3E80           00570         ADDLW   0x80
0058   3E80           00571         ADDLW   0x80
0059   1D03           00572         BTFSS   STATUS,2
005A   2???           00573         GOTO    _00139_DS_
gpasm-1.4.0 #1107 (May  9 2015) build/default   1-12-2017  22:05:14         PAGE 12


LOC    OBJECT CODE    LINE  SOURCE TEXT
  VALUE

005B   3010           00574         MOVLW   0x10
005C   02??           00575         SUBWF   r0x1053,W
005D                  00576 _00139_DS_:
005D   1C03           00577         BTFSS   STATUS,0
005E   2???           00578         GOTO    _00108_DS_
                      00579 ;;genSkipc:3257: created from rifx:0x7ffffb8f35a0
                      00580 ;       .line   127; "main.c"   next = 0;
005F   ???? ????      00581         BANKSEL r0x1053
0061   01??           00582         CLRF    r0x1053
0062   01??           00583         CLRF    r0x1054
0063                  00584 _00108_DS_:
                      00585 ;       .line   129; "main.c"   buf_tail = next;
0063   ???? ????      00586         BANKSEL r0x1053
0065   08??           00587         MOVF    r0x1053,W
0066   ???? ????      00588         BANKSEL _buf_tail
0068   00??           00589         MOVWF   _buf_tail
0069                  00590 _00113_DS_:
                      00591 ;       .line   135; "main.c"   if(CCP1IF){
0069   ???? ????      00592         BANKSEL _PIR1bits
006B   1D??           00593         BTFSS   _PIR1bits,2
006C   2???           00594         GOTO    _00118_DS_
                      00595 ;       .line   136; "main.c"   CCP1IE = FALSE;
006D   ???? ????      00596         BANKSEL _PIE1bits
006F   11??           00597         BCF     _PIE1bits,2
                      00598 ;       .line   137; "main.c"   if(CCP1M0){                     // if ECCP mode is Rising edge CCP1M0
0070   ???? ????      00599         BANKSEL _CCP1CONbits
0072   1C??           00600         BTFSS   _CCP1CONbits,0
0073   2???           00601         GOTO    _00115_DS_
                      00602 ;       .line   138; "main.c"   CCP1M0 = FALING;                 // set falling edge
0074   10??           00603         BCF     _CCP1CONbits,0
                      00604 ;       .line   141; "main.c"   TMR1H = 0;
0075   01??           00605         CLRF    _TMR1H
                      00606 ;       .line   142; "main.c"   TMR1L = 0;
0076   01??           00607         CLRF    _TMR1L
                      00608 ;       .line   144; "main.c"   t = 0x0000 | CCPR1H;        //ECCP result higher 8 bits
0077   08??           00609         MOVF    _CCPR1H,W
0078   ???? ????      00610         BANKSEL r0x1053
007A   00??           00611         MOVWF   r0x1053
007B   ???? ????      00612         BANKSEL _t
007D   00??           00613         MOVWF   _t
007E   01??           00614         CLRF    (_t + 1)
                      00615 ;       .line   145; "main.c"   t = t << 8;
007F   08??           00616         MOVF    _t,W
0080   00??           00617         MOVWF   (_t + 1)
0081   01??           00618         CLRF    _t
                      00619 ;       .line   146; "main.c"   t = t | CCPR1L;             //ECCP combined 16 bit number formation
0082   ???? ????      00620         BANKSEL _CCPR1L
0084   08??           00621         MOVF    _CCPR1L,W
0085   ???? ????      00622         BANKSEL r0x1053
0087   00??           00623         MOVWF   r0x1053
0088   01??           00624         CLRF    r0x1054
0089   08??           00625         MOVF    r0x1053,W
008A   ???? ????      00626         BANKSEL _t
gpasm-1.4.0 #1107 (May  9 2015) build/default   1-12-2017  22:05:14         PAGE 13


LOC    OBJECT CODE    LINE  SOURCE TEXT
  VALUE

008C   04??           00627         IORWF   _t,F
008D   3000           00628         MOVLW   0x00
008E   04??           00629         IORWF   (_t + 1),F
                      00630 ;       .line   149; "main.c"   bitfield.Capture = TRUE;
008F   ???? ????      00631         BANKSEL _bitfield
0091   14??           00632         BSF     _bitfield,0
0092   2???           00633         GOTO    _00116_DS_
0093                  00634 _00115_DS_:
                      00635 ;       .line   152; "main.c"   CCP1M0 = RISING;
0093   ???? ????      00636         BANKSEL _CCP1CONbits
0095   14??           00637         BSF     _CCP1CONbits,0
                      00638 ;       .line   154; "main.c"   w = 0x0000 | CCPR1H;        //ECCP result higher 8 bits
0096   08??           00639         MOVF    _CCPR1H,W
0097   ???? ????      00640         BANKSEL r0x1053
0099   00??           00641         MOVWF   r0x1053
009A   ???? ????      00642         BANKSEL _w
009C   00??           00643         MOVWF   _w
009D   01??           00644         CLRF    (_w + 1)
                      00645 ;       .line   155; "main.c"   w = w << 8;
009E   08??           00646         MOVF    _w,W
009F   00??           00647         MOVWF   (_w + 1)
00A0   01??           00648         CLRF    _w
                      00649 ;       .line   156; "main.c"   w = w | CCPR1L;             //ECCP combined 16 bit number formation
00A1   ???? ????      00650         BANKSEL _CCPR1L
00A3   08??           00651         MOVF    _CCPR1L,W
00A4   ???? ????      00652         BANKSEL r0x1053
00A6   00??           00653         MOVWF   r0x1053
00A7   01??           00654         CLRF    r0x1054
00A8   08??           00655         MOVF    r0x1053,W
00A9   ???? ????      00656         BANKSEL _w
00AB   04??           00657         IORWF   _w,F
00AC   3000           00658         MOVLW   0x00
00AD   04??           00659         IORWF   (_w + 1),F
00AE                  00660 _00116_DS_:
                      00661 ;       .line   161; "main.c"   CCP1IE = 1;
00AE   ???? ????      00662         BANKSEL _PIE1bits
00B0   15??           00663         BSF     _PIE1bits,2
                      00664 ;       .line   162; "main.c"   CCP1IF = 0;                     //Clear interrupt flag
00B1   ???? ????      00665         BANKSEL _PIR1bits
00B3   11??           00666         BCF     _PIR1bits,2
00B4                  00667 _00118_DS_:
                      00668 ;       .line   164; "main.c"   int_error_cnt++;
00B4   ???? ????      00669         BANKSEL _int_error_cnt
00B6   0A??           00670         INCF    _int_error_cnt,F
00B7   ???? ????      00671         BANKSEL ___sdcc_saved_fsr
00B9   08??           00672         MOVF    ___sdcc_saved_fsr,W
00BA   1283 1303      00673         BANKSEL FSR
00BC   0084           00674         MOVWF   FSR
00BD   08??           00675         MOVF    PSAVE,W
00BE   008A           00676         MOVWF   PCLATH
00BF   0183           00677         CLRF    STATUS
00C0   0E??           00678         SWAPF   SSAVE,W
00C1   0083           00679         MOVWF   STATUS
gpasm-1.4.0 #1107 (May  9 2015) build/default   1-12-2017  22:05:14         PAGE 14


LOC    OBJECT CODE    LINE  SOURCE TEXT
  VALUE

00C2   0E??           00680         SWAPF   WSAVE,F
00C3   0E??           00681         SWAPF   WSAVE,W
00C4                  00682 END_OF_INTERRUPT:
00C4   0009           00683         RETFIE  
                      00684 
                      00685 ;--------------------------------------------------------
                      00686 ; code
                      00687 ;--------------------------------------------------------
                      00688 code_main       code
                      00689 ;***
                      00690 ;  pBlock Stats: dbName = M
                      00691 ;***
                      00692 ;has an exit
                      00693 ;functions called:
                      00694 ;   _init
                      00695 ;   _SP_send
                      00696 ;   _SP_send
                      00697 ;   _SP_send
                      00698 ;   _SP_send
                      00699 ;   __mulchar
                      00700 ;   _dec_to_ascii_buf
                      00701 ;   _SP_send
                      00702 ;   _dec_to_ascii_buf
                      00703 ;   _SP_send
                      00704 ;   _SP_send
                      00705 ;   _init
                      00706 ;   _SP_send
                      00707 ;   _SP_send
                      00708 ;   _SP_send
                      00709 ;   _SP_send
                      00710 ;   __mulchar
                      00711 ;   _dec_to_ascii_buf
                      00712 ;   _SP_send
                      00713 ;   _dec_to_ascii_buf
                      00714 ;   _SP_send
                      00715 ;   _SP_send
                      00716 ;11 compiler assigned registers:
                      00717 ;   r0x104A
                      00718 ;   r0x104B
                      00719 ;   r0x104C
                      00720 ;   r0x104D
                      00721 ;   r0x104E
                      00722 ;   STK01
                      00723 ;   STK00
                      00724 ;   r0x104F
                      00725 ;   r0x1050
                      00726 ;   r0x1051
                      00727 ;   r0x1052
                      00728 ;; Starting pCode block
                      00729 S_main__main    code
0000                  00730 _main:
                      00731 ; 2 exit points
                      00732 ;       .line   168; "main.c"   uint8_t i = 0;
gpasm-1.4.0 #1107 (May  9 2015) build/default   1-12-2017  22:05:14         PAGE 15


LOC    OBJECT CODE    LINE  SOURCE TEXT
  VALUE

0000   ???? ????      00733         BANKSEL r0x104A
0002   01??           00734         CLRF    r0x104A
                      00735 ;       .line   170; "main.c"   uint8_t k = 0;
0003   01??           00736         CLRF    r0x104B
                      00737 ;       .line   172; "main.c"   init();
0004   ????           00738         PAGESEL _init
0005   2???           00739         CALL    _init
0006   ????           00740         PAGESEL $
                      00741 ;       .line   173; "main.c"   bitfield.Hint = FALSE;
0007   ???? ????      00742         BANKSEL _bitfield
0009   11??           00743         BCF     _bitfield,2
                      00744 ;       .line   174; "main.c"   bitfield.Capture = FALSE;
000A   10??           00745         BCF     _bitfield,0
000B                  00746 _00175_DS_:
                      00747 ;       .line   186; "main.c"   if (bitfield.Capture){
000B   ???? ????      00748         BANKSEL _bitfield
000D   1C??           00749         BTFSS   _bitfield,0
000E   2???           00750         GOTO    _00170_DS_
                      00751 ;       .line   187; "main.c"   bitfield.Capture = FALSE;
000F   10??           00752         BCF     _bitfield,0
                      00753 ;;swapping arguments (AOP_TYPEs 1/3)
                      00754 ;;unsigned compare: left >= lit(0x759=1881), size=2
                      00755 ;       .line   189; "main.c"   if (t > MIN_T && t < MAX_T && t1 > MIN_T && t1 < MAX_T){
0010   3007           00756         MOVLW   0x07
0011   ???? ????      00757         BANKSEL _t
0013   02??           00758         SUBWF   (_t + 1),W
0014   1D03           00759         BTFSS   STATUS,2
0015   2???           00760         GOTO    _00257_DS_
0016   3059           00761         MOVLW   0x59
0017   02??           00762         SUBWF   _t,W
0018                  00763 _00257_DS_:
0018   1C03           00764         BTFSS   STATUS,0
0019   2???           00765         GOTO    _00160_DS_
                      00766 ;;genSkipc:3257: created from rifx:0x7ffffb8f35a0
                      00767 ;;unsigned compare: left < lit(0x79E=1950), size=2
001A   3007           00768         MOVLW   0x07
001B   ???? ????      00769         BANKSEL _t
001D   02??           00770         SUBWF   (_t + 1),W
001E   1D03           00771         BTFSS   STATUS,2
001F   2???           00772         GOTO    _00258_DS_
0020   309E           00773         MOVLW   0x9e
0021   02??           00774         SUBWF   _t,W
0022                  00775 _00258_DS_:
0022   1803           00776         BTFSC   STATUS,0
0023   2???           00777         GOTO    _00160_DS_
                      00778 ;;genSkipc:3257: created from rifx:0x7ffffb8f35a0
                      00779 ;;swapping arguments (AOP_TYPEs 1/3)
                      00780 ;;unsigned compare: left >= lit(0x759=1881), size=2
0024   3007           00781         MOVLW   0x07
0025   ???? ????      00782         BANKSEL _t1
0027   02??           00783         SUBWF   (_t1 + 1),W
0028   1D03           00784         BTFSS   STATUS,2
0029   2???           00785         GOTO    _00259_DS_
gpasm-1.4.0 #1107 (May  9 2015) build/default   1-12-2017  22:05:14         PAGE 16


LOC    OBJECT CODE    LINE  SOURCE TEXT
  VALUE

002A   3059           00786         MOVLW   0x59
002B   02??           00787         SUBWF   _t1,W
002C                  00788 _00259_DS_:
002C   1C03           00789         BTFSS   STATUS,0
002D   2???           00790         GOTO    _00160_DS_
                      00791 ;;genSkipc:3257: created from rifx:0x7ffffb8f35a0
                      00792 ;;unsigned compare: left < lit(0x79E=1950), size=2
002E   3007           00793         MOVLW   0x07
002F   ???? ????      00794         BANKSEL _t1
0031   02??           00795         SUBWF   (_t1 + 1),W
0032   1D03           00796         BTFSS   STATUS,2
0033   2???           00797         GOTO    _00260_DS_
0034   309E           00798         MOVLW   0x9e
0035   02??           00799         SUBWF   _t1,W
0036                  00800 _00260_DS_:
0036   1803           00801         BTFSC   STATUS,0
0037   2???           00802         GOTO    _00160_DS_
                      00803 ;;genSkipc:3257: created from rifx:0x7ffffb8f35a0
                      00804 ;       .line   190; "main.c"   bitfield.Hint = TRUE;
0038   ???? ????      00805         BANKSEL _bitfield
003A   15??           00806         BSF     _bitfield,2
                      00807 ;;swapping arguments (AOP_TYPEs 1/3)
                      00808 ;;unsigned compare: left >= lit(0x547=1351), size=2
                      00809 ;       .line   191; "main.c"   if (w > MIN_W1 && w < MAX_W1 && w1 > MIN_W1 && w1 < MAX_W1){
003B   3005           00810         MOVLW   0x05
003C   ???? ????      00811         BANKSEL _w
003E   02??           00812         SUBWF   (_w + 1),W
003F   1D03           00813         BTFSS   STATUS,2
0040   2???           00814         GOTO    _00261_DS_
0041   3047           00815         MOVLW   0x47
0042   02??           00816         SUBWF   _w,W
0043                  00817 _00261_DS_:
0043   1C03           00818         BTFSS   STATUS,0
0044   2???           00819         GOTO    _00145_DS_
                      00820 ;;genSkipc:3257: created from rifx:0x7ffffb8f35a0
                      00821 ;;unsigned compare: left < lit(0x596=1430), size=2
0045   3005           00822         MOVLW   0x05
0046   ???? ????      00823         BANKSEL _w
0048   02??           00824         SUBWF   (_w + 1),W
0049   1D03           00825         BTFSS   STATUS,2
004A   2???           00826         GOTO    _00262_DS_
004B   3096           00827         MOVLW   0x96
004C   02??           00828         SUBWF   _w,W
004D                  00829 _00262_DS_:
004D   1803           00830         BTFSC   STATUS,0
004E   2???           00831         GOTO    _00145_DS_
                      00832 ;;genSkipc:3257: created from rifx:0x7ffffb8f35a0
                      00833 ;;swapping arguments (AOP_TYPEs 1/3)
                      00834 ;;unsigned compare: left >= lit(0x547=1351), size=2
004F   3005           00835         MOVLW   0x05
0050   ???? ????      00836         BANKSEL _w1
0052   02??           00837         SUBWF   (_w1 + 1),W
0053   1D03           00838         BTFSS   STATUS,2
gpasm-1.4.0 #1107 (May  9 2015) build/default   1-12-2017  22:05:14         PAGE 17


LOC    OBJECT CODE    LINE  SOURCE TEXT
  VALUE

0054   2???           00839         GOTO    _00263_DS_
0055   3047           00840         MOVLW   0x47
0056   02??           00841         SUBWF   _w1,W
0057                  00842 _00263_DS_:
0057   1C03           00843         BTFSS   STATUS,0
0058   2???           00844         GOTO    _00145_DS_
                      00845 ;;genSkipc:3257: created from rifx:0x7ffffb8f35a0
                      00846 ;;unsigned compare: left < lit(0x596=1430), size=2
0059   3005           00847         MOVLW   0x05
005A   ???? ????      00848         BANKSEL _w1
005C   02??           00849         SUBWF   (_w1 + 1),W
005D   1D03           00850         BTFSS   STATUS,2
005E   2???           00851         GOTO    _00264_DS_
005F   3096           00852         MOVLW   0x96
0060   02??           00853         SUBWF   _w1,W
0061                  00854 _00264_DS_:
0061   1803           00855         BTFSC   STATUS,0
0062   2???           00856         GOTO    _00145_DS_
                      00857 ;;genSkipc:3257: created from rifx:0x7ffffb8f35a0
                      00858 ;       .line   192; "main.c"   SP_send(strV1);
0063   30??           00859         MOVLW   high (_strV1 + 0)
0064   ???? ????      00860         BANKSEL r0x104C
0066   00??           00861         MOVWF   r0x104C
0067   30??           00862         MOVLW   (_strV1 + 0)
0068   00??           00863         MOVWF   r0x104D
0069   3080           00864         MOVLW   0x80
006A   00??           00865         MOVWF   r0x104E
006B   08??           00866         MOVF    r0x104D,W
006C   00??           00867         MOVWF   STK01
006D   08??           00868         MOVF    r0x104C,W
006E   00??           00869         MOVWF   STK00
006F   08??           00870         MOVF    r0x104E,W
0070   ????           00871         PAGESEL _SP_send
0071   2???           00872         CALL    _SP_send
0072   ????           00873         PAGESEL $
                      00874 ;       .line   193; "main.c"   t = 0;
0073   ???? ????      00875         BANKSEL _t
0075   01??           00876         CLRF    _t
0076   01??           00877         CLRF    (_t + 1)
                      00878 ;       .line   194; "main.c"   w = 0;
0077   ???? ????      00879         BANKSEL _w
0079   01??           00880         CLRF    _w
007A   01??           00881         CLRF    (_w + 1)
                      00882 ;       .line   195; "main.c"   i++;
007B   ???? ????      00883         BANKSEL r0x104A
007D   0A??           00884         INCF    r0x104A,F
                      00885 ;;swapping arguments (AOP_TYPEs 1/3)
                      00886 ;;unsigned compare: left >= lit(0x17D=381), size=2
007E                  00887 _00145_DS_:
                      00888 ;       .line   197; "main.c"   if (w > MIN_W0 && w < MAX_W0 && w1 > MIN_W0 && w1 < MAX_W0){
007E   3001           00889         MOVLW   0x01
007F   ???? ????      00890         BANKSEL _w
0081   02??           00891         SUBWF   (_w + 1),W
gpasm-1.4.0 #1107 (May  9 2015) build/default   1-12-2017  22:05:14         PAGE 18


LOC    OBJECT CODE    LINE  SOURCE TEXT
  VALUE

0082   1D03           00892         BTFSS   STATUS,2
0083   2???           00893         GOTO    _00265_DS_
0084   307D           00894         MOVLW   0x7d
0085   02??           00895         SUBWF   _w,W
0086                  00896 _00265_DS_:
0086   1C03           00897         BTFSS   STATUS,0
0087   2???           00898         GOTO    _00150_DS_
                      00899 ;;genSkipc:3257: created from rifx:0x7ffffb8f35a0
                      00900 ;;unsigned compare: left < lit(0x1C2=450), size=2
0088   3001           00901         MOVLW   0x01
0089   ???? ????      00902         BANKSEL _w
008B   02??           00903         SUBWF   (_w + 1),W
008C   1D03           00904         BTFSS   STATUS,2
008D   2???           00905         GOTO    _00266_DS_
008E   30C2           00906         MOVLW   0xc2
008F   02??           00907         SUBWF   _w,W
0090                  00908 _00266_DS_:
0090   1803           00909         BTFSC   STATUS,0
0091   2???           00910         GOTO    _00150_DS_
                      00911 ;;genSkipc:3257: created from rifx:0x7ffffb8f35a0
                      00912 ;;swapping arguments (AOP_TYPEs 1/3)
                      00913 ;;unsigned compare: left >= lit(0x17D=381), size=2
0092   3001           00914         MOVLW   0x01
0093   ???? ????      00915         BANKSEL _w1
0095   02??           00916         SUBWF   (_w1 + 1),W
0096   1D03           00917         BTFSS   STATUS,2
0097   2???           00918         GOTO    _00267_DS_
0098   307D           00919         MOVLW   0x7d
0099   02??           00920         SUBWF   _w1,W
009A                  00921 _00267_DS_:
009A   1C03           00922         BTFSS   STATUS,0
009B   2???           00923         GOTO    _00150_DS_
                      00924 ;;genSkipc:3257: created from rifx:0x7ffffb8f35a0
                      00925 ;;unsigned compare: left < lit(0x1C2=450), size=2
009C   3001           00926         MOVLW   0x01
009D   ???? ????      00927         BANKSEL _w1
009F   02??           00928         SUBWF   (_w1 + 1),W
00A0   1D03           00929         BTFSS   STATUS,2
00A1   2???           00930         GOTO    _00268_DS_
00A2   30C2           00931         MOVLW   0xc2
00A3   02??           00932         SUBWF   _w1,W
00A4                  00933 _00268_DS_:
00A4   1803           00934         BTFSC   STATUS,0
00A5   2???           00935         GOTO    _00150_DS_
                      00936 ;;genSkipc:3257: created from rifx:0x7ffffb8f35a0
                      00937 ;       .line   198; "main.c"   SP_send(strV0);
00A6   30??           00938         MOVLW   high (_strV0 + 0)
00A7   ???? ????      00939         BANKSEL r0x104C
00A9   00??           00940         MOVWF   r0x104C
00AA   30??           00941         MOVLW   (_strV0 + 0)
00AB   00??           00942         MOVWF   r0x104D
00AC   3080           00943         MOVLW   0x80
00AD   00??           00944         MOVWF   r0x104E
gpasm-1.4.0 #1107 (May  9 2015) build/default   1-12-2017  22:05:14         PAGE 19


LOC    OBJECT CODE    LINE  SOURCE TEXT
  VALUE

00AE   08??           00945         MOVF    r0x104D,W
00AF   00??           00946         MOVWF   STK01
00B0   08??           00947         MOVF    r0x104C,W
00B1   00??           00948         MOVWF   STK00
00B2   08??           00949         MOVF    r0x104E,W
00B3   ????           00950         PAGESEL _SP_send
00B4   2???           00951         CALL    _SP_send
00B5   ????           00952         PAGESEL $
                      00953 ;       .line   199; "main.c"   t = 0;
00B6   ???? ????      00954         BANKSEL _t
00B8   01??           00955         CLRF    _t
00B9   01??           00956         CLRF    (_t + 1)
                      00957 ;       .line   200; "main.c"   w = 0;
00BA   ???? ????      00958         BANKSEL _w
00BC   01??           00959         CLRF    _w
00BD   01??           00960         CLRF    (_w + 1)
                      00961 ;       .line   201; "main.c"   i++;
00BE   ???? ????      00962         BANKSEL r0x104A
00C0   0A??           00963         INCF    r0x104A,F
                      00964 ;;swapping arguments (AOP_TYPEs 1/3)
                      00965 ;;unsigned compare: left >= lit(0x17D=381), size=2
00C1                  00966 _00150_DS_:
                      00967 ;       .line   203; "main.c"   if (w1 > MIN_W0 && w1 < MAX_W0 && w > MIN_W1 && w < MAX_W1){
00C1   3001           00968         MOVLW   0x01
00C2   ???? ????      00969         BANKSEL _w1
00C4   02??           00970         SUBWF   (_w1 + 1),W
00C5   1D03           00971         BTFSS   STATUS,2
00C6   2???           00972         GOTO    _00269_DS_
00C7   307D           00973         MOVLW   0x7d
00C8   02??           00974         SUBWF   _w1,W
00C9                  00975 _00269_DS_:
00C9   1C03           00976         BTFSS   STATUS,0
00CA   2???           00977         GOTO    _00160_DS_
                      00978 ;;genSkipc:3257: created from rifx:0x7ffffb8f35a0
                      00979 ;;unsigned compare: left < lit(0x1C2=450), size=2
00CB   3001           00980         MOVLW   0x01
00CC   ???? ????      00981         BANKSEL _w1
00CE   02??           00982         SUBWF   (_w1 + 1),W
00CF   1D03           00983         BTFSS   STATUS,2
00D0   2???           00984         GOTO    _00270_DS_
00D1   30C2           00985         MOVLW   0xc2
00D2   02??           00986         SUBWF   _w1,W
00D3                  00987 _00270_DS_:
00D3   1803           00988         BTFSC   STATUS,0
00D4   2???           00989         GOTO    _00160_DS_
                      00990 ;;genSkipc:3257: created from rifx:0x7ffffb8f35a0
                      00991 ;;swapping arguments (AOP_TYPEs 1/3)
                      00992 ;;unsigned compare: left >= lit(0x547=1351), size=2
00D5   3005           00993         MOVLW   0x05
00D6   ???? ????      00994         BANKSEL _w
00D8   02??           00995         SUBWF   (_w + 1),W
00D9   1D03           00996         BTFSS   STATUS,2
00DA   2???           00997         GOTO    _00271_DS_
gpasm-1.4.0 #1107 (May  9 2015) build/default   1-12-2017  22:05:14         PAGE 20


LOC    OBJECT CODE    LINE  SOURCE TEXT
  VALUE

00DB   3047           00998         MOVLW   0x47
00DC   02??           00999         SUBWF   _w,W
00DD                  01000 _00271_DS_:
00DD   1C03           01001         BTFSS   STATUS,0
00DE   2???           01002         GOTO    _00160_DS_
                      01003 ;;genSkipc:3257: created from rifx:0x7ffffb8f35a0
                      01004 ;;unsigned compare: left < lit(0x596=1430), size=2
00DF   3005           01005         MOVLW   0x05
00E0   ???? ????      01006         BANKSEL _w
00E2   02??           01007         SUBWF   (_w + 1),W
00E3   1D03           01008         BTFSS   STATUS,2
00E4   2???           01009         GOTO    _00272_DS_
00E5   3096           01010         MOVLW   0x96
00E6   02??           01011         SUBWF   _w,W
00E7                  01012 _00272_DS_:
00E7   1803           01013         BTFSC   STATUS,0
00E8   2???           01014         GOTO    _00160_DS_
                      01015 ;;genSkipc:3257: created from rifx:0x7ffffb8f35a0
                      01016 ;       .line   204; "main.c"   SP_send(strVF);
00E9   30??           01017         MOVLW   high (_strVF + 0)
00EA   ???? ????      01018         BANKSEL r0x104C
00EC   00??           01019         MOVWF   r0x104C
00ED   30??           01020         MOVLW   (_strVF + 0)
00EE   00??           01021         MOVWF   r0x104D
00EF   3080           01022         MOVLW   0x80
00F0   00??           01023         MOVWF   r0x104E
00F1   08??           01024         MOVF    r0x104D,W
00F2   00??           01025         MOVWF   STK01
00F3   08??           01026         MOVF    r0x104C,W
00F4   00??           01027         MOVWF   STK00
00F5   08??           01028         MOVF    r0x104E,W
00F6   ????           01029         PAGESEL _SP_send
00F7   2???           01030         CALL    _SP_send
00F8   ????           01031         PAGESEL $
                      01032 ;       .line   205; "main.c"   t = 0;
00F9   ???? ????      01033         BANKSEL _t
00FB   01??           01034         CLRF    _t
00FC   01??           01035         CLRF    (_t + 1)
                      01036 ;       .line   206; "main.c"   w = 0;
00FD   ???? ????      01037         BANKSEL _w
00FF   01??           01038         CLRF    _w
0100   01??           01039         CLRF    (_w + 1)
                      01040 ;       .line   207; "main.c"   i++;
0101   ???? ????      01041         BANKSEL r0x104A
0103   0A??           01042         INCF    r0x104A,F
                      01043 ;;swapping arguments (AOP_TYPEs 1/3)
                      01044 ;;unsigned compare: left >= lit(0x3A99=15001), size=2
0104                  01045 _00160_DS_:
                      01046 ;       .line   220; "main.c"   if (t > MIN_TS && t < MAX_TS && w > MIN_W0 && w < MAX_W0){
0104   303A           01047         MOVLW   0x3a
0105   ???? ????      01048         BANKSEL _t
0107   02??           01049         SUBWF   (_t + 1),W
0108   1D03           01050         BTFSS   STATUS,2
gpasm-1.4.0 #1107 (May  9 2015) build/default   1-12-2017  22:05:14         PAGE 21


LOC    OBJECT CODE    LINE  SOURCE TEXT
  VALUE

0109   2???           01051         GOTO    _00273_DS_
010A   3099           01052         MOVLW   0x99
010B   02??           01053         SUBWF   _t,W
010C                  01054 _00273_DS_:
010C   1C03           01055         BTFSS   STATUS,0
010D   2???           01056         GOTO    _00165_DS_
                      01057 ;;genSkipc:3257: created from rifx:0x7ffffb8f35a0
                      01058 ;;unsigned compare: left < lit(0x3E80=16000), size=2
010E   303E           01059         MOVLW   0x3e
010F   ???? ????      01060         BANKSEL _t
0111   02??           01061         SUBWF   (_t + 1),W
0112   1D03           01062         BTFSS   STATUS,2
0113   2???           01063         GOTO    _00274_DS_
0114   3080           01064         MOVLW   0x80
0115   02??           01065         SUBWF   _t,W
0116                  01066 _00274_DS_:
0116   1803           01067         BTFSC   STATUS,0
0117   2???           01068         GOTO    _00165_DS_
                      01069 ;;genSkipc:3257: created from rifx:0x7ffffb8f35a0
                      01070 ;;swapping arguments (AOP_TYPEs 1/3)
                      01071 ;;unsigned compare: left >= lit(0x17D=381), size=2
0118   3001           01072         MOVLW   0x01
0119   ???? ????      01073         BANKSEL _w
011B   02??           01074         SUBWF   (_w + 1),W
011C   1D03           01075         BTFSS   STATUS,2
011D   2???           01076         GOTO    _00275_DS_
011E   307D           01077         MOVLW   0x7d
011F   02??           01078         SUBWF   _w,W
0120                  01079 _00275_DS_:
0120   1C03           01080         BTFSS   STATUS,0
0121   2???           01081         GOTO    _00165_DS_
                      01082 ;;genSkipc:3257: created from rifx:0x7ffffb8f35a0
                      01083 ;;unsigned compare: left < lit(0x1C2=450), size=2
0122   3001           01084         MOVLW   0x01
0123   ???? ????      01085         BANKSEL _w
0125   02??           01086         SUBWF   (_w + 1),W
0126   1D03           01087         BTFSS   STATUS,2
0127   2???           01088         GOTO    _00276_DS_
0128   30C2           01089         MOVLW   0xc2
0129   02??           01090         SUBWF   _w,W
012A                  01091 _00276_DS_:
012A   1803           01092         BTFSC   STATUS,0
012B   2???           01093         GOTO    _00165_DS_
                      01094 ;;genSkipc:3257: created from rifx:0x7ffffb8f35a0
                      01095 ;       .line   221; "main.c"   SP_send(sync);
012C   30??           01096         MOVLW   high (_sync + 0)
012D   ???? ????      01097         BANKSEL r0x104C
012F   00??           01098         MOVWF   r0x104C
0130   30??           01099         MOVLW   (_sync + 0)
0131   00??           01100         MOVWF   r0x104D
0132   3080           01101         MOVLW   0x80
0133   00??           01102         MOVWF   r0x104E
0134   08??           01103         MOVF    r0x104D,W
gpasm-1.4.0 #1107 (May  9 2015) build/default   1-12-2017  22:05:14         PAGE 22


LOC    OBJECT CODE    LINE  SOURCE TEXT
  VALUE

0135   00??           01104         MOVWF   STK01
0136   08??           01105         MOVF    r0x104C,W
0137   00??           01106         MOVWF   STK00
0138   08??           01107         MOVF    r0x104E,W
0139   ????           01108         PAGESEL _SP_send
013A   2???           01109         CALL    _SP_send
013B   ????           01110         PAGESEL $
                      01111 ;       .line   222; "main.c"   t = 0;
013C   ???? ????      01112         BANKSEL _t
013E   01??           01113         CLRF    _t
013F   01??           01114         CLRF    (_t + 1)
                      01115 ;       .line   223; "main.c"   w = 0;
0140   ???? ????      01116         BANKSEL _w
0142   01??           01117         CLRF    _w
0143   01??           01118         CLRF    (_w + 1)
                      01119 ;       .line   224; "main.c"   i++;
0144   ???? ????      01120         BANKSEL r0x104A
0146   0A??           01121         INCF    r0x104A,F
0147                  01122 _00165_DS_:
                      01123 ;       .line   242; "main.c"   t1 = t;
0147   ???? ????      01124         BANKSEL _t
0149   08??           01125         MOVF    _t,W
014A   ???? ????      01126         BANKSEL _t1
014C   00??           01127         MOVWF   _t1
014D   ???? ????      01128         BANKSEL _t
014F   08??           01129         MOVF    (_t + 1),W
0150   ???? ????      01130         BANKSEL _t1
0152   00??           01131         MOVWF   (_t1 + 1)
                      01132 ;       .line   243; "main.c"   w1 = w;
0153   ???? ????      01133         BANKSEL _w
0155   08??           01134         MOVF    _w,W
0156   ???? ????      01135         BANKSEL _w1
0158   00??           01136         MOVWF   _w1
0159   ???? ????      01137         BANKSEL _w
015B   08??           01138         MOVF    (_w + 1),W
015C   ???? ????      01139         BANKSEL _w1
015E   00??           01140         MOVWF   (_w1 + 1)
015F                  01141 _00170_DS_:
                      01142 ;       .line   245; "main.c"   CCP1IE = 0;
015F   ???? ????      01143         BANKSEL _PIE1bits
0161   11??           01144         BCF     _PIE1bits,2
                      01145 ;;unsigned compare: left < lit(0xA=10), size=1
                      01146 ;       .line   246; "main.c"   if(k >= 10){
0162   300A           01147         MOVLW   0x0a
0163   ???? ????      01148         BANKSEL r0x104B
0165   02??           01149         SUBWF   r0x104B,W
0166   1C03           01150         BTFSS   STATUS,0
0167   2???           01151         GOTO    _00173_DS_
                      01152 ;;genSkipc:3257: created from rifx:0x7ffffb8f35a0
                      01153 ;       .line   247; "main.c"   for(j = 0; j < 10; j++){
0168   01??           01154         CLRF    r0x104D
0169                  01155 _00177_DS_:
                      01156 ;       .line   248; "main.c"   dec_to_ascii_buf(bw[j]);
gpasm-1.4.0 #1107 (May  9 2015) build/default   1-12-2017  22:05:14         PAGE 23


LOC    OBJECT CODE    LINE  SOURCE TEXT
  VALUE

0169   3002           01157         MOVLW   0x02
016A   00??           01158         MOVWF   STK00
016B   ???? ????      01159         BANKSEL r0x104D
016D   08??           01160         MOVF    r0x104D,W
016E   ????           01161         PAGESEL __mulchar
016F   2???           01162         CALL    __mulchar
0170   ????           01163         PAGESEL $
0171   ???? ????      01164         BANKSEL r0x104C
0173   00??           01165         MOVWF   r0x104C
0174   01??           01166         CLRF    r0x104E
0175   08??           01167         MOVF    r0x104C,W
0176   3E??           01168         ADDLW   (_bw + 0)
0177   00??           01169         MOVWF   r0x104F
0178   30??           01170         MOVLW   high (_bw + 0)
0179   00??           01171         MOVWF   r0x1050
017A   3000           01172         MOVLW   0x00
017B   1803           01173         BTFSC   STATUS,0
017C   0F??           01174         INCFSZ  r0x104E,W
017D   07??           01175         ADDWF   r0x1050,F
017E   08??           01176         MOVF    r0x104F,W
017F   1283 1303      01177         BANKSEL FSR
0181   0084           01178         MOVWF   FSR
0182   1383           01179         BCF     STATUS,7
0183   ???? ????      01180         BANKSEL r0x1050
0185   18??           01181         BTFSC   r0x1050,0
0186   1783           01182         BSF     STATUS,7
0187   1283 1303      01183         BANKSEL INDF
0189   0800           01184         MOVF    INDF,W
018A   ???? ????      01185         BANKSEL r0x1051
018C   00??           01186         MOVWF   r0x1051
018D   1283 1303      01187         BANKSEL FSR
018F   0A84           01188         INCF    FSR,F
0190   0800           01189         MOVF    INDF,W
0191   ???? ????      01190         BANKSEL r0x1052
0193   00??           01191         MOVWF   r0x1052
0194   08??           01192         MOVF    r0x1051,W
0195   00??           01193         MOVWF   STK00
0196   08??           01194         MOVF    r0x1052,W
0197   ????           01195         PAGESEL _dec_to_ascii_buf
0198   2???           01196         CALL    _dec_to_ascii_buf
0199   ????           01197         PAGESEL $
                      01198 ;       .line   249; "main.c"   SP_send(tab);
019A   30??           01199         MOVLW   high (_tab + 0)
019B   ???? ????      01200         BANKSEL r0x1050
019D   00??           01201         MOVWF   r0x1050
019E   30??           01202         MOVLW   (_tab + 0)
019F   00??           01203         MOVWF   r0x104F
01A0   3080           01204         MOVLW   0x80
01A1   00??           01205         MOVWF   r0x1051
01A2   08??           01206         MOVF    r0x104F,W
01A3   00??           01207         MOVWF   STK01
01A4   08??           01208         MOVF    r0x1050,W
01A5   00??           01209         MOVWF   STK00
gpasm-1.4.0 #1107 (May  9 2015) build/default   1-12-2017  22:05:14         PAGE 24


LOC    OBJECT CODE    LINE  SOURCE TEXT
  VALUE

01A6   08??           01210         MOVF    r0x1051,W
01A7   ????           01211         PAGESEL _SP_send
01A8   2???           01212         CALL    _SP_send
01A9   ????           01213         PAGESEL $
                      01214 ;       .line   250; "main.c"   dec_to_ascii_buf(bt[j]);
01AA   ???? ????      01215         BANKSEL r0x104C
01AC   08??           01216         MOVF    r0x104C,W
01AD   3E??           01217         ADDLW   (_bt + 0)
01AE   00??           01218         MOVWF   r0x104C
01AF   08??           01219         MOVF    r0x104E,W
01B0   1803           01220         BTFSC   STATUS,0
01B1   0F??           01221         INCFSZ  r0x104E,W
01B2   3E??           01222         ADDLW   high (_bt + 0)
01B3   00??           01223         MOVWF   r0x104E
01B4   08??           01224         MOVF    r0x104C,W
01B5   1283 1303      01225         BANKSEL FSR
01B7   0084           01226         MOVWF   FSR
01B8   1383           01227         BCF     STATUS,7
01B9   ???? ????      01228         BANKSEL r0x104E
01BB   18??           01229         BTFSC   r0x104E,0
01BC   1783           01230         BSF     STATUS,7
01BD   1283 1303      01231         BANKSEL INDF
01BF   0800           01232         MOVF    INDF,W
01C0   ???? ????      01233         BANKSEL r0x104F
01C2   00??           01234         MOVWF   r0x104F
01C3   1283 1303      01235         BANKSEL FSR
01C5   0A84           01236         INCF    FSR,F
01C6   0800           01237         MOVF    INDF,W
01C7   ???? ????      01238         BANKSEL r0x1050
01C9   00??           01239         MOVWF   r0x1050
01CA   08??           01240         MOVF    r0x104F,W
01CB   00??           01241         MOVWF   STK00
01CC   08??           01242         MOVF    r0x1050,W
01CD   ????           01243         PAGESEL _dec_to_ascii_buf
01CE   2???           01244         CALL    _dec_to_ascii_buf
01CF   ????           01245         PAGESEL $
                      01246 ;       .line   251; "main.c"   SP_send(enter);
01D0   30??           01247         MOVLW   high (_enter + 0)
01D1   ???? ????      01248         BANKSEL r0x104E
01D3   00??           01249         MOVWF   r0x104E
01D4   30??           01250         MOVLW   (_enter + 0)
01D5   00??           01251         MOVWF   r0x104C
01D6   3080           01252         MOVLW   0x80
01D7   00??           01253         MOVWF   r0x104F
01D8   08??           01254         MOVF    r0x104C,W
01D9   00??           01255         MOVWF   STK01
01DA   08??           01256         MOVF    r0x104E,W
01DB   00??           01257         MOVWF   STK00
01DC   08??           01258         MOVF    r0x104F,W
01DD   ????           01259         PAGESEL _SP_send
01DE   2???           01260         CALL    _SP_send
01DF   ????           01261         PAGESEL $
                      01262 ;       .line   247; "main.c"   for(j = 0; j < 10; j++){
gpasm-1.4.0 #1107 (May  9 2015) build/default   1-12-2017  22:05:14         PAGE 25


LOC    OBJECT CODE    LINE  SOURCE TEXT
  VALUE

01E0   ???? ????      01263         BANKSEL r0x104D
01E2   0A??           01264         INCF    r0x104D,F
                      01265 ;;unsigned compare: left < lit(0xA=10), size=1
01E3   300A           01266         MOVLW   0x0a
01E4   02??           01267         SUBWF   r0x104D,W
01E5   1C03           01268         BTFSS   STATUS,0
01E6   2???           01269         GOTO    _00177_DS_
                      01270 ;;genSkipc:3257: created from rifx:0x7ffffb8f35a0
                      01271 ;       .line   263; "main.c"   SP_send(sync);
01E7   30??           01272         MOVLW   high (_sync + 0)
01E8   00??           01273         MOVWF   r0x104C
01E9   30??           01274         MOVLW   (_sync + 0)
01EA   00??           01275         MOVWF   r0x104D
01EB   3080           01276         MOVLW   0x80
01EC   00??           01277         MOVWF   r0x104E
01ED   08??           01278         MOVF    r0x104D,W
01EE   00??           01279         MOVWF   STK01
01EF   08??           01280         MOVF    r0x104C,W
01F0   00??           01281         MOVWF   STK00
01F1   08??           01282         MOVF    r0x104E,W
01F2   ????           01283         PAGESEL _SP_send
01F3   2???           01284         CALL    _SP_send
01F4   ????           01285         PAGESEL $
                      01286 ;       .line   264; "main.c"   i = 0;
01F5   ???? ????      01287         BANKSEL r0x104A
01F7   01??           01288         CLRF    r0x104A
                      01289 ;       .line   265; "main.c"   k = 0;
01F8   01??           01290         CLRF    r0x104B
01F9                  01291 _00173_DS_:
                      01292 ;       .line   268; "main.c"   CCP1IE = 1;
01F9   ???? ????      01293         BANKSEL _PIE1bits
01FB   15??           01294         BSF     _PIE1bits,2
                      01295 ;       .line   269; "main.c"   int_error_cnt = 0;
01FC   ???? ????      01296         BANKSEL _int_error_cnt
01FE   01??           01297         CLRF    _int_error_cnt
01FF   2???           01298         GOTO    _00175_DS_
0200   0008           01299         RETURN  
                      01300 ; exit point of _main
                      01301 
                      01302 ;***
                      01303 ;  pBlock Stats: dbName = C
                      01304 ;***
                      01305 ;has an exit
                      01306 ;functions called:
                      01307 ;   _SP_send
                      01308 ;   _SP_send
                      01309 ;7 compiler assigned registers:
                      01310 ;   r0x1045
                      01311 ;   r0x1046
                      01312 ;   r0x1047
                      01313 ;   r0x1048
                      01314 ;   r0x1049
                      01315 ;   STK01
gpasm-1.4.0 #1107 (May  9 2015) build/default   1-12-2017  22:05:14         PAGE 26


LOC    OBJECT CODE    LINE  SOURCE TEXT
  VALUE

                      01316 ;   STK00
                      01317 ;; Starting pCode block
                      01318 S_main__circBufPush     code
0000                  01319 _circBufPush:
                      01320 ; 2 exit points
                      01321 ;       .line   273; "main.c"   int circBufPush(uint8_t data){
0000   ???? ????      01322         BANKSEL r0x1045
0002   00??           01323         MOVWF   r0x1045
                      01324 ;       .line   274; "main.c"   uint8_t next = buf_head + 1;
0003   ???? ????      01325         BANKSEL _buf_head
0005   0A??           01326         INCF    _buf_head,W
0006   ???? ????      01327         BANKSEL r0x1046
0008   00??           01328         MOVWF   r0x1046
                      01329 ;;unsigned compare: left < lit(0x10=16), size=1
                      01330 ;       .line   275; "main.c"   if (next >= BUF_SIZE)
0009   3010           01331         MOVLW   0x10
                      01332 ;       .line   276; "main.c"   next = 0;
000A   02??           01333         SUBWF   r0x1046,W
                      01334 ;       .line   279; "main.c"   if (next == buf_tail){
000B   1803           01335         BTFSC   STATUS,0
000C   01??           01336         CLRF    r0x1046
000D   ???? ????      01337         BANKSEL _buf_tail
000F   08??           01338         MOVF    _buf_tail,W
0010   ???? ????      01339         BANKSEL r0x1046
0012   06??           01340         XORWF   r0x1046,W
0013   1D03           01341         BTFSS   STATUS,2
0014   2???           01342         GOTO    _00284_DS_
                      01343 ;       .line   280; "main.c"   SP_send(buf_err);
0015   30??           01344         MOVLW   high (_buf_err + 0)
0016   00??           01345         MOVWF   r0x1047
0017   30??           01346         MOVLW   (_buf_err + 0)
0018   00??           01347         MOVWF   r0x1048
0019   3080           01348         MOVLW   0x80
001A   00??           01349         MOVWF   r0x1049
001B   08??           01350         MOVF    r0x1048,W
001C   00??           01351         MOVWF   STK01
001D   08??           01352         MOVF    r0x1047,W
001E   00??           01353         MOVWF   STK00
001F   08??           01354         MOVF    r0x1049,W
0020   ????           01355         PAGESEL _SP_send
0021   2???           01356         CALL    _SP_send
0022   ????           01357         PAGESEL $
                      01358 ;       .line   281; "main.c"   return -1;  // quit with an error
0023   30FF           01359         MOVLW   0xff
0024   00??           01360         MOVWF   STK00
0025   30FF           01361         MOVLW   0xff
0026   2???           01362         GOTO    _00285_DS_
0027                  01363 _00284_DS_:
                      01364 ;       .line   284; "main.c"   buf[buf_head] = data;
0027   ???? ????      01365         BANKSEL _buf_head
0029   08??           01366         MOVF    _buf_head,W
002A   3E??           01367         ADDLW   (_buf + 0)
002B   ???? ????      01368         BANKSEL r0x1048
gpasm-1.4.0 #1107 (May  9 2015) build/default   1-12-2017  22:05:14         PAGE 27


LOC    OBJECT CODE    LINE  SOURCE TEXT
  VALUE

002D   00??           01369         MOVWF   r0x1048
002E   30??           01370         MOVLW   high (_buf + 0)
002F   1803           01371         BTFSC   STATUS,0
0030   3E01           01372         ADDLW   0x01
0031   00??           01373         MOVWF   r0x1047
0032   08??           01374         MOVF    r0x1048,W
0033   1283 1303      01375         BANKSEL FSR
0035   0084           01376         MOVWF   FSR
0036   1383           01377         BCF     STATUS,7
0037   ???? ????      01378         BANKSEL r0x1047
0039   18??           01379         BTFSC   r0x1047,0
003A   1783           01380         BSF     STATUS,7
003B   08??           01381         MOVF    r0x1045,W
003C   1283 1303      01382         BANKSEL INDF
003E   0080           01383         MOVWF   INDF
                      01384 ;       .line   285; "main.c"   buf_head = next;
003F   ???? ????      01385         BANKSEL r0x1046
0041   08??           01386         MOVF    r0x1046,W
0042   ???? ????      01387         BANKSEL _buf_head
0044   00??           01388         MOVWF   _buf_head
                      01389 ;       .line   286; "main.c"   TXIE = 1;       //Enables the EUSART transmit interrupt
0045   ???? ????      01390         BANKSEL _PIE1bits
0047   16??           01391         BSF     _PIE1bits,4
                      01392 ;       .line   287; "main.c"   return 0;
0048   3000           01393         MOVLW   0x00
0049   00??           01394         MOVWF   STK00
004A   3000           01395         MOVLW   0x00
004B                  01396 _00285_DS_:
004B   0008           01397         RETURN  
                      01398 ; exit point of _circBufPush
                      01399 
                      01400 
                      01401 ;       code size estimation:
                      01402 ;         510+  148 =   658 instructions ( 1612 byte)
                      01403 
                      01404         end
gpasm-1.4.0 #1107 (May  9 2015) build/default   1-12-2017  22:05:14         PAGE 28


SYMBOL TABLE
  LABEL                             VALUE

ABDEN                             00000000
ABDOVF                            00000007
ADCON0                            0000001F
ADCON1                            0000009F
ADCS0                             00000004
ADCS1                             00000005
ADCS2                             00000006
ADDEN                             00000003
ADFM                              00000007
ADIE                              00000006
ADIF                              00000006
ADON                              00000000
ADRESH                            0000001E
ADRESL                            0000009E
ANS0                              00000000
ANS1                              00000001
ANS10                             00000002
ANS11                             00000003
ANS2                              00000002
ANS3                              00000003
ANS4                              00000004
ANS5                              00000005
ANS6                              00000006
ANS7                              00000007
ANS8                              00000000
ANS9                              00000001
ANSEL                             0000011E
ANSELH                            0000011F
BAUDCTL                           0000009B
BF                                00000000
BRG0                              00000000
BRG1                              00000001
BRG10                             00000002
BRG11                             00000003
BRG12                             00000004
BRG13                             00000005
BRG14                             00000006
BRG15                             00000007
BRG16                             00000003
BRG2                              00000002
BRG3                              00000003
BRG4                              00000004
BRG5                              00000005
BRG6                              00000006
BRG7                              00000007
BRG8                              00000000
BRG9                              00000001
BRGH                              00000002
C                                 00000000
C1CH0                             00000000
C1CH1                             00000001
C1IE                              00000005
C1IF                              00000005
gpasm-1.4.0 #1107 (May  9 2015) build/default   1-12-2017  22:05:14         PAGE 29


SYMBOL TABLE
  LABEL                             VALUE 

C1OE                              00000005
C1ON                              00000007
C1OUT                             00000006
C1POL                             00000004
C1R                               00000002
C1SEN                             00000005
C1VREN                            00000007
C2CH0                             00000000
C2CH1                             00000001
C2IE                              00000006
C2IF                              00000006
C2OE                              00000005
C2ON                              00000007
C2OUT                             00000006
C2POL                             00000004
C2R                               00000002
C2REN                             00000004
C2SYNC                            00000000
C2VREN                            00000006
CCP1CON                           00000017
CCP1IE                            00000002
CCP1IF                            00000002
CCP1M0                            00000000
CCP1M1                            00000001
CCP1M2                            00000002
CCP1M3                            00000003
CCPR                              00000015
CCPR1H                            00000016
CCPR1L                            00000015
CHS0                              00000002
CHS1                              00000003
CHS2                              00000004
CHS3                              00000005
CKE                               00000006
CKP                               00000004
CM1CON0                           00000119
CM2CON0                           0000011A
CM2CON1                           0000011B
CREN                              00000004
CSRC                              00000007
D                                 00000005
DATA_ADDRESS                      00000005
DC                                00000001
DC1B0                             00000004
DC1B1                             00000005
D_A                               00000005
D_NOT_A                           00000005
ECCPAS                            0000001D
ECCPAS0                           00000004
ECCPAS1                           00000005
ECCPAS2                           00000006
ECCPASE                           00000007
EEADR                             0000010D
gpasm-1.4.0 #1107 (May  9 2015) build/default   1-12-2017  22:05:14         PAGE 30


SYMBOL TABLE
  LABEL                             VALUE 

EEADRH                            0000010F
EECON1                            0000018C
EECON2                            0000018D
EEDAT                             0000010C
EEDATA                            0000010C
EEDATH                            0000010E
EEIE                              00000004
EEIF                              00000004
EEPGD                             00000007
END_OF_INTERRUPT                  000000C4
F                                 00000001
FERR                              00000002
FSR                               00000004
GIE                               00000007
GO                                00000001
GO_DONE                           00000001
GO_NOT_DONE                       00000001
HTS                               00000002
I2C_DATA                          00000005
I2C_READ                          00000002
I2C_START                         00000003
I2C_STOP                          00000004
INDF                              00000000
INTCON                            0000000B
INTE                              00000004
INTEDG                            00000006
INTF                              00000001
IOC                               00000096
IOC0                              00000000
IOC1                              00000001
IOC2                              00000002
IOC3                              00000003
IOC4                              00000004
IOC5                              00000005
IOCA                              00000096
IOCA0                             00000000
IOCA1                             00000001
IOCA2                             00000002
IOCA3                             00000003
IOCA4                             00000004
IOCA5                             00000005
IOCB                              00000116
IOCB4                             00000004
IOCB5                             00000005
IOCB6                             00000006
IOCB7                             00000007
IRCF0                             00000004
IRCF1                             00000005
IRCF2                             00000006
IRP                               00000007
LTS                               00000001
MC1OUT                            00000007
MC2OUT                            00000006
gpasm-1.4.0 #1107 (May  9 2015) build/default   1-12-2017  22:05:14         PAGE 31


SYMBOL TABLE
  LABEL                             VALUE 

MSK                               00000093
MSK0                              00000000
MSK1                              00000001
MSK2                              00000002
MSK3                              00000003
MSK4                              00000004
MSK5                              00000005
MSK6                              00000006
MSK7                              00000007
NOT_A                             00000005
NOT_ADDRESS                       00000005
NOT_BOR                           00000000
NOT_DONE                          00000001
NOT_PD                            00000003
NOT_POR                           00000001
NOT_RABPU                         00000007
NOT_T1SYNC                        00000002
NOT_TO                            00000004
NOT_W                             00000002
NOT_WRITE                         00000002
OERR                              00000001
OPTION_REG                        00000081
OSCCON                            0000008F
OSCTUNE                           00000090
OSFIE                             00000007
OSFIF                             00000007
OSTS                              00000003
P                                 00000004
P1M0                              00000006
P1M1                              00000007
PCL                               00000002
PCLATH                            0000000A
PCON                              0000008E
PDC0                              00000000
PDC1                              00000001
PDC2                              00000002
PDC3                              00000003
PDC4                              00000004
PDC5                              00000005
PDC6                              00000006
PEIE                              00000006
PIE1                              0000008C
PIE2                              0000008D
PIR1                              0000000C
PIR2                              0000000D
PORTA                             00000005
PORTB                             00000006
PORTC                             00000007
PR2                               00000092
PRSEN                             00000007
PS0                               00000000
PS1                               00000001
PS2                               00000002
gpasm-1.4.0 #1107 (May  9 2015) build/default   1-12-2017  22:05:14         PAGE 32


SYMBOL TABLE
  LABEL                             VALUE 

PSA                               00000003
PSAVE                             00000070
PSSAC0                            00000002
PSSAC1                            00000003
PSSBD0                            00000000
PSSBD1                            00000001
PSTRCON                           0000019D
PULSR                             00000002
PULSS                             00000003
PWM1CON                           0000001C
R                                 00000002
RA0                               00000000
RA1                               00000001
RA2                               00000002
RA3                               00000003
RA4                               00000004
RA5                               00000005
RABIE                             00000003
RABIF                             00000000
RB4                               00000004
RB5                               00000005
RB6                               00000006
RB7                               00000007
RC0                               00000000
RC1                               00000001
RC2                               00000002
RC3                               00000003
RC4                               00000004
RC5                               00000005
RC6                               00000006
RC7                               00000007
RCIDL                             00000006
RCIE                              00000005
RCIF                              00000005
RCREG                             0000001A
RCSTA                             00000018
RD                                00000000
READ_WRITE                        00000002
RP0                               00000005
RP1                               00000006
RX9                               00000006
RX9D                              00000000
R_NOT_W                           00000002
R_W                               00000002
S                                 00000003
SBOREN                            00000004
SCKP                              00000004
SCS                               00000000
SENB                              00000003
SENDB                             00000003
SMP                               00000007
SPBRG                             00000099
SPBRGH                            0000009A
gpasm-1.4.0 #1107 (May  9 2015) build/default   1-12-2017  22:05:14         PAGE 33


SYMBOL TABLE
  LABEL                             VALUE 

SPEN                              00000007
SR0                               00000006
SR1                               00000007
SRCON                             0000019E
SREN                              00000005
SSAVE                             00000071
SSPADD                            00000093
SSPBUF                            00000013
SSPCON                            00000014
SSPEN                             00000005
SSPIE                             00000003
SSPIF                             00000003
SSPM0                             00000000
SSPM1                             00000001
SSPM2                             00000002
SSPM3                             00000003
SSPMSK                            00000093
SSPOV                             00000006
SSPSTAT                           00000094
STATUS                            00000003
STK00                             0000007F
STK01                             0000007E
STK02                             0000007D
STK03                             0000007C
STK04                             0000007B
STK05                             0000007A
STK06                             00000079
STK07                             00000078
STK08                             00000077
STK09                             00000076
STK10                             00000075
STK11                             00000074
STK12                             00000073
STRA                              00000000
STRB                              00000001
STRC                              00000002
STRD                              00000003
STRSYNC                           00000004
SWDTEN                            00000000
SYNC                              00000004
T0CS                              00000005
T0IE                              00000005
T0IF                              00000002
T0SE                              00000004
T1CKPS0                           00000004
T1CKPS1                           00000005
T1CON                             00000010
T1GINV                            00000007
T1GSS                             00000001
T1IE                              00000000
T1IF                              00000000
T1OSCEN                           00000003
T2CKPS0                           00000000
gpasm-1.4.0 #1107 (May  9 2015) build/default   1-12-2017  22:05:14         PAGE 34


SYMBOL TABLE
  LABEL                             VALUE 

T2CKPS1                           00000001
T2CON                             00000012
T2IE                              00000001
T2IF                              00000001
TMR0                              00000001
TMR1                              0000000E
TMR1CS                            00000001
TMR1GE                            00000006
TMR1H                             0000000F
TMR1IE                            00000000
TMR1IF                            00000000
TMR1L                             0000000E
TMR1ON                            00000000
TMR2                              00000011
TMR2IE                            00000001
TMR2IF                            00000001
TMR2ON                            00000002
TOUTPS0                           00000003
TOUTPS1                           00000004
TOUTPS2                           00000005
TOUTPS3                           00000006
TRISA                             00000085
TRISA0                            00000000
TRISA1                            00000001
TRISA2                            00000002
TRISA3                            00000003
TRISA4                            00000004
TRISA5                            00000005
TRISB                             00000086
TRISB4                            00000004
TRISB5                            00000005
TRISB6                            00000006
TRISB7                            00000007
TRISC                             00000087
TRISC0                            00000000
TRISC1                            00000001
TRISC2                            00000002
TRISC3                            00000003
TRISC4                            00000004
TRISC5                            00000005
TRISC6                            00000006
TRISC7                            00000007
TRMT                              00000001
TUN0                              00000000
TUN1                              00000001
TUN2                              00000002
TUN3                              00000003
TUN4                              00000004
TX9                               00000006
TX9D                              00000000
TXEN                              00000005
TXIE                              00000004
TXIF                              00000004
gpasm-1.4.0 #1107 (May  9 2015) build/default   1-12-2017  22:05:14         PAGE 35


SYMBOL TABLE
  LABEL                             VALUE 

TXREG                             00000019
TXSTA                             00000098
UA                                00000001
ULPWUE                            00000005
VCFG                              00000006
VP6EN                             00000004
VR0                               00000000
VR1                               00000001
VR2                               00000002
VR3                               00000003
VRCON                             00000118
VRR                               00000005
W                                 00000000
WCOL                              00000007
WDTCON                            00000097
WDTPS0                            00000001
WDTPS1                            00000002
WDTPS2                            00000003
WDTPS3                            00000004
WPU                               00000095
WPU0                              00000000
WPU1                              00000001
WPU2                              00000002
WPU4                              00000004
WPU5                              00000005
WPUA                              00000095
WPUA0                             00000000
WPUA1                             00000001
WPUA2                             00000002
WPUA4                             00000004
WPUA5                             00000005
WPUB                              00000115
WPUB4                             00000004
WPUB5                             00000005
WPUB6                             00000006
WPUB7                             00000007
WR                                00000001
WREN                              00000002
WRERR                             00000003
WSAVE                             00000072
WUE                               00000001
Z                                 00000002
_00106_DS_                        00000015
_00108_DS_                        00000063
_00110_DS_                        00000025
_00113_DS_                        00000069
_00115_DS_                        00000093
_00116_DS_                        000000AE
_00118_DS_                        000000B4
_00139_DS_                        0000005D
_00145_DS_                        0000007E
_00150_DS_                        000000C1
_00160_DS_                        00000104
gpasm-1.4.0 #1107 (May  9 2015) build/default   1-12-2017  22:05:14         PAGE 36


SYMBOL TABLE
  LABEL                             VALUE 

_00165_DS_                        00000147
_00170_DS_                        0000015F
_00173_DS_                        000001F9
_00175_DS_                        0000000B
_00177_DS_                        00000169
_00257_DS_                        00000018
_00258_DS_                        00000022
_00259_DS_                        0000002C
_00260_DS_                        00000036
_00261_DS_                        00000043
_00262_DS_                        0000004D
_00263_DS_                        00000057
_00264_DS_                        00000061
_00265_DS_                        00000086
_00266_DS_                        00000090
_00267_DS_                        0000009A
_00268_DS_                        000000A4
_00269_DS_                        000000C9
_00270_DS_                        000000D3
_00271_DS_                        000000DD
_00272_DS_                        000000E7
_00273_DS_                        0000010C
_00274_DS_                        00000116
_00275_DS_                        00000120
_00276_DS_                        0000012A
_00284_DS_                        00000027
_00285_DS_                        0000004B
_ADCON0                           00000000
_ADCON0bits                       00000000
_ADCON1                           00000000
_ADCON1bits                       00000000
_ADRESH                           00000000
_ADRESL                           00000000
_ANSEL                            00000000
_ANSELH                           00000000
_ANSELHbits                       00000000
_ANSELbits                        00000000
_BAUDCTL                          00000000
_BAUDCTLbits                      00000000
_BOD_NSLEEP                       00003EFF
_BOD_OFF                          00003CFF
_BOD_ON                           00003FFF
_BOD_SBODEN                       00003DFF
_BOREN_NSLEEP                     00003EFF
_BOREN_OFF                        00003CFF
_BOREN_ON                         00003FFF
_BOREN_SBODEN                     00003DFF
_BOR_NSLEEP                       00003EFF
_BOR_OFF                          00003CFF
_BOR_ON                           00003FFF
_BOR_SBODEN                       00003DFF
_CCP1CON                          00000000
_CCP1CONbits                      00000000
gpasm-1.4.0 #1107 (May  9 2015) build/default   1-12-2017  22:05:14         PAGE 37


SYMBOL TABLE
  LABEL                             VALUE 

_CCPR                             00000000
_CCPR1H                           00000000
_CCPR1L                           00000000
_CM1CON0                          00000000
_CM1CON0bits                      00000000
_CM2CON0                          00000000
_CM2CON0bits                      00000000
_CM2CON1                          00000000
_CM2CON1bits                      00000000
_CONFIG                           00002007
_CPD_OFF                          00003FFF
_CPD_ON                           00003F7F
_CP_OFF                           00003FFF
_CP_ON                            00003FBF
_DEVID1                           00002006
_ECCPAS                           00000000
_ECCPASbits                       00000000
_EC_OSC                           00003FFB
_EEADR                            00000000
_EEADRH                           00000000
_EECON1                           00000000
_EECON1bits                       00000000
_EECON2                           00000000
_EEDAT                            00000000
_EEDATA                           00000000
_EEDATH                           00000000
_EXTRC                            00003FFF
_EXTRCIO                          00003FFE
_EXTRC_OSC_CLKOUT                 00003FFF
_EXTRC_OSC_NOCLKOUT               00003FFE
_FCMEN_OFF                        000037FF
_FCMEN_ON                         00003FFF
_FOSC_EC                          00003FFB
_FOSC_EXTRCCLK                    00003FFF
_FOSC_EXTRCIO                     00003FFE
_FOSC_HS                          00003FFA
_FOSC_INTRCCLK                    00003FFD
_FOSC_INTRCIO                     00003FFC
_FOSC_LP                          00003FF8
_FOSC_XT                          00003FF9
_FSR                              00000000
_HS_OSC                           00003FFA
_IDLOC0                           00002000
_IDLOC1                           00002001
_IDLOC2                           00002002
_IDLOC3                           00002003
_IESO_OFF                         00003BFF
_IESO_ON                          00003FFF
_INDF                             00000000
_INTCON                           00000000
_INTCONbits                       00000000
_INTOSC                           00003FFD
_INTOSCIO                         00003FFC
gpasm-1.4.0 #1107 (May  9 2015) build/default   1-12-2017  22:05:14         PAGE 38


SYMBOL TABLE
  LABEL                             VALUE 

_INTRC_OSC_CLKOUT                 00003FFD
_INTRC_OSC_NOCLKOUT               00003FFC
_IOC                              00000000
_IOCA                             00000000
_IOCAbits                         00000000
_IOCB                             00000000
_IOCBbits                         00000000
_IOCbits                          00000000
_LP_OSC                           00003FF8
_MCLRE_OFF                        00003FDF
_MCLRE_ON                         00003FFF
_MSK                              00000000
_MSKbits                          00000000
_OPTION_REG                       00000000
_OPTION_REGbits                   00000000
_OSCCON                           00000000
_OSCCONbits                       00000000
_OSCTUNE                          00000000
_OSCTUNEbits                      00000000
_PCL                              00000000
_PCLATH                           00000000
_PCON                             00000000
_PCONbits                         00000000
_PIE1                             00000000
_PIE1bits                         00000000
_PIE2                             00000000
_PIE2bits                         00000000
_PIR1                             00000000
_PIR1bits                         00000000
_PIR2                             00000000
_PIR2bits                         00000000
_PORTA                            00000000
_PORTAbits                        00000000
_PORTB                            00000000
_PORTBbits                        00000000
_PORTC                            00000000
_PORTCbits                        00000000
_PR2                              00000000
_PSTRCON                          00000000
_PSTRCONbits                      00000000
_PWM1CON                          00000000
_PWM1CONbits                      00000000
_PWRTE_OFF                        00003FFF
_PWRTE_ON                         00003FEF
_RCREG                            00000000
_RCSTA                            00000000
_RCSTAbits                        00000000
_SPBRG                            00000000
_SPBRGH                           00000000
_SPBRGHbits                       00000000
_SPBRGbits                        00000000
_SP_send                          00000000
_SP_send_buf                      00000000
gpasm-1.4.0 #1107 (May  9 2015) build/default   1-12-2017  22:05:14         PAGE 39


SYMBOL TABLE
  LABEL                             VALUE 

_SRCON                            00000000
_SRCONbits                        00000000
_SSPADD                           00000000
_SSPBUF                           00000000
_SSPCON                           00000000
_SSPCONbits                       00000000
_SSPMSK                           00000000
_SSPMSKbits                       00000000
_SSPSTAT                          00000000
_SSPSTATbits                      00000000
_STATUS                           00000000
_STATUSbits                       00000000
_S_main__circBufPush_0022         00000022
_S_main__main_0006                00000006
_S_main__main_0072                00000072
_S_main__main_00B5                000000B5
_S_main__main_00F8                000000F8
_S_main__main_013B                0000013B
_S_main__main_0170                00000170
_S_main__main_0199                00000199
_S_main__main_01A9                000001A9
_S_main__main_01CF                000001CF
_S_main__main_01DF                000001DF
_S_main__main_01F4                000001F4
_T1CON                            00000000
_T1CONbits                        00000000
_T2CON                            00000000
_T2CONbits                        00000000
_TMR0                             00000000
_TMR1                             00000000
_TMR1H                            00000000
_TMR1L                            00000000
_TMR2                             00000000
_TRISA                            00000000
_TRISAbits                        00000000
_TRISB                            00000000
_TRISBbits                        00000000
_TRISC                            00000000
_TRISCbits                        00000000
_TXREG                            00000000
_TXSTA                            00000000
_TXSTAbits                        00000000
_VRCON                            00000000
_VRCONbits                        00000000
_WDTCON                           00000000
_WDTCONbits                       00000000
_WDTE_OFF                         00003FF7
_WDTE_ON                          00003FFF
_WDT_OFF                          00003FF7
_WDT_ON                           00003FFF
_WPU                              00000000
_WPUA                             00000000
_WPUAbits                         00000000
gpasm-1.4.0 #1107 (May  9 2015) build/default   1-12-2017  22:05:14         PAGE 40


SYMBOL TABLE
  LABEL                             VALUE 

_WPUB                             00000000
_WPUBbits                         00000000
_WPUbits                          00000000
_XT_OSC                           00003FF9
__16F690                          00000001
__CODE_END                        00000FFF
__CODE_START                      00000000
__COMMON_RAM_END                  0000007F
__COMMON_RAM_START                00000070
__EEPROM_END                      000021FF
__EEPROM_START                    00002100
__VECTOR_INT                      00000004
__VECTOR_RESET                    00000000
___sdcc_saved_fsr                 00000000
__mulchar                         00000000
__sdcc_gsinit_startup             00000000
__sdcc_interrupt                  00000004
_bitfield                         00000000
_bt                               00000000
_buf                              00000000
_buf_err                          00000000
_buf_head                         00000000
_buf_tail                         00000000
_bw                               00000000
_circBufPush                      00000000
_dec_to_ascii_buf                 00000000
_enter                            00000000
_init                             00000000
_int_err                          00000000
_int_error_cnt                    00000000
_main                             00000000
_pie1                             00000000
_pie2                             00000000
_pir1                             00000000
_pir2                             00000000
_receive_intr                     00000004
_strV0                            00000000
_strV1                            00000000
_strVF                            00000000
_strt                             00000000
_strt1                            00000000
_strw                             00000000
_strw1                            00000000
_sync                             00000000
_t                                00000000
_t1                               00000000
_tab                              00000000
_tim0_owf                         00000000
_uint8_send                       00000000
_w                                00000000
_w1                               00000000
r0x1045                           0000000B
r0x1046                           0000000C
gpasm-1.4.0 #1107 (May  9 2015) build/default   1-12-2017  22:05:14         PAGE 41


SYMBOL TABLE
  LABEL                             VALUE 

r0x1047                           0000000E
r0x1048                           0000000D
r0x1049                           0000000F
r0x104A                           00000002
r0x104B                           00000003
r0x104C                           00000005
r0x104D                           00000004
r0x104E                           00000006
r0x104F                           00000007
r0x1050                           00000008
r0x1051                           00000009
r0x1052                           0000000A
r0x1053                           00000000
r0x1054                           00000001

Errors   :     0
Warnings :     0 reported,     0 suppressed
Messages :     0 reported,     0 suppressed

