gplink-1.4.0 #1107 (May  9 2015)
Map File - Created 1-25-2017  18:42:36

                                 Section Info
                  Section       Type    Address   Location Size(Bytes)
                ---------  ---------  ---------  ---------  ---------
              ID_main_4_i    romdata   0x000003    program   0x000002
                   .cinit    romdata   0x000490    program   0x000064
              ID_main_0_i    romdata   0x000601    program   0x000004
              ID_main_1_i    romdata   0x000603    program   0x000004
              ID_main_2_i    romdata   0x000605    program   0x000004
              ID_main_3_i    romdata   0x000607    program   0x000004
              ID_main_5_i    romdata   0x00060d    program   0x000002
              ID_main_6_i    romdata   0x00060e    program   0x000002
             ID_idata_0_i    romdata   0x00060f    program   0x000002
                  STARTUP       code   0x000000    program   0x000006
              c_interrupt       code   0x000004    program   0x000186
             S_main__main       code   0x0000c7    program   0x000400
S_idata___sdcc_gsinit_startup       code   0x0002c7    program   0x000138
S_str__uint8_to_ascii_buf       code   0x000363    program   0x0000e2
      S_main__circBufPush       code   0x0003d4    program   0x000098
             S_init__init       code   0x000420    program   0x000078
                    .code       code   0x00045c    program   0x000068
   S__divuchar___divuchar       code   0x0004c2    program   0x000062
           S_str__SP_send       code   0x0004f3    program   0x000060
   S__moduchar___moduchar       code   0x000523    program   0x00005c
       S_str__SP_send_buf       code   0x000551    program   0x000058
               ID_main_19       code   0x00057d    program   0x000022
               ID_main_26       code   0x00058e    program   0x000018
               ID_main_25       code   0x00059a    program   0x000014
               ID_main_18       code   0x0005a4    program   0x000012
        S_str__uint8_send       code   0x0005ad    program   0x000010
               ID_main_20       code   0x0005b5    program   0x00000e
               ID_main_21       code   0x0005bc    program   0x00000e
               ID_main_22       code   0x0005c3    program   0x00000e
               ID_main_23       code   0x0005ca    program   0x00000e
               ID_main_24       code   0x0005d1    program   0x00000e
               ID_main_17       code   0x0005d8    program   0x00000c
                ID_main_7       code   0x0005de    program   0x00000a
               ID_main_13       code   0x0005e3    program   0x00000a
               ID_main_14       code   0x0005e8    program   0x00000a
                ID_main_8       code   0x0005ed    program   0x000008
                ID_main_9       code   0x0005f1    program   0x000008
               ID_main_10       code   0x0005f5    program   0x000008
               ID_main_11       code   0x0005f9    program   0x000008
               ID_main_12       code   0x0005fd    program   0x000008
               ID_main_15       code   0x000609    program   0x000004
               ID_main_16       code   0x00060b    program   0x000004
.config_2007_BUILD/DEFAULT/PRODUCTION/MAIN.O       code   0x002007    program   0x000002
                ID_main_0      idata   0x0000b0       data   0x000002
                ID_main_1      idata   0x0000b2       data   0x000002
                ID_main_2      idata   0x0000b4       data   0x000002
                ID_main_3      idata   0x0000b6       data   0x000002
                ID_main_4      idata   0x0000b9       data   0x000001
                ID_main_5      idata   0x0000ba       data   0x000001
                ID_main_6      idata   0x0000bb       data   0x000001
               ID_idata_0      idata   0x0000bd       data   0x000001
       UD_abs_pic16f690_0      udata   0x000000       data   0x000001
       UD_abs_pic16f690_1      udata   0x000001       data   0x000001
       UD_abs_pic16f690_2      udata   0x000002       data   0x000001
       UD_abs_pic16f690_3      udata   0x000003       data   0x000001
       UD_abs_pic16f690_4      udata   0x000004       data   0x000001
       UD_abs_pic16f690_5      udata   0x000005       data   0x000001
       UD_abs_pic16f690_6      udata   0x000006       data   0x000001
       UD_abs_pic16f690_7      udata   0x000007       data   0x000001
       UD_abs_pic16f690_a      udata   0x00000a       data   0x000001
       UD_abs_pic16f690_b      udata   0x00000b       data   0x000001
       UD_abs_pic16f690_c      udata   0x00000c       data   0x000001
       UD_abs_pic16f690_d      udata   0x00000d       data   0x000001
       UD_abs_pic16f690_e      udata   0x00000e       data   0x000001
       UD_abs_pic16f690_f      udata   0x00000f       data   0x000001
      UD_abs_pic16f690_10      udata   0x000010       data   0x000001
      UD_abs_pic16f690_11      udata   0x000011       data   0x000001
      UD_abs_pic16f690_12      udata   0x000012       data   0x000001
      UD_abs_pic16f690_13      udata   0x000013       data   0x000001
      UD_abs_pic16f690_14      udata   0x000014       data   0x000001
      UD_abs_pic16f690_15      udata   0x000015       data   0x000001
      UD_abs_pic16f690_16      udata   0x000016       data   0x000001
      UD_abs_pic16f690_17      udata   0x000017       data   0x000001
      UD_abs_pic16f690_18      udata   0x000018       data   0x000001
      UD_abs_pic16f690_19      udata   0x000019       data   0x000001
      UD_abs_pic16f690_1a      udata   0x00001a       data   0x000001
      UD_abs_pic16f690_1c      udata   0x00001c       data   0x000001
      UD_abs_pic16f690_1d      udata   0x00001d       data   0x000001
      UD_abs_pic16f690_1e      udata   0x00001e       data   0x000001
      UD_abs_pic16f690_1f      udata   0x00001f       data   0x000001
                UDL_str_0      udata   0x000020       data   0x000019
                UD_main_1      udata   0x000039       data   0x000014
                UD_main_2      udata   0x00004d       data   0x000010
               UDL_main_0      udata   0x00005d       data   0x00000e
          UDL__divuchar_0      udata   0x00006b       data   0x000005
                sharebank      udata   0x000070       data   0x000010
      UD_abs_pic16f690_81      udata   0x000081       data   0x000001
      UD_abs_pic16f690_85      udata   0x000085       data   0x000001
      UD_abs_pic16f690_86      udata   0x000086       data   0x000001
      UD_abs_pic16f690_87      udata   0x000087       data   0x000001
      UD_abs_pic16f690_8c      udata   0x00008c       data   0x000001
      UD_abs_pic16f690_8d      udata   0x00008d       data   0x000001
      UD_abs_pic16f690_8e      udata   0x00008e       data   0x000001
      UD_abs_pic16f690_8f      udata   0x00008f       data   0x000001
      UD_abs_pic16f690_90      udata   0x000090       data   0x000001
      UD_abs_pic16f690_92      udata   0x000092       data   0x000001
      UD_abs_pic16f690_93      udata   0x000093       data   0x000001
      UD_abs_pic16f690_94      udata   0x000094       data   0x000001
      UD_abs_pic16f690_95      udata   0x000095       data   0x000001
      UD_abs_pic16f690_96      udata   0x000096       data   0x000001
      UD_abs_pic16f690_97      udata   0x000097       data   0x000001
      UD_abs_pic16f690_98      udata   0x000098       data   0x000001
      UD_abs_pic16f690_99      udata   0x000099       data   0x000001
      UD_abs_pic16f690_9a      udata   0x00009a       data   0x000001
      UD_abs_pic16f690_9b      udata   0x00009b       data   0x000001
      UD_abs_pic16f690_9e      udata   0x00009e       data   0x000001
      UD_abs_pic16f690_9f      udata   0x00009f       data   0x000001
              UDL_idata_0      udata   0x0000a0       data   0x00000c
          UDL__moduchar_0      udata   0x0000ac       data   0x000004
                UD_main_0      udata   0x0000b8       data   0x000001
          UD_shadowregs_0      udata   0x0000bc       data   0x000001
     UD_abs_pic16f690_10c      udata   0x00010c       data   0x000001
     UD_abs_pic16f690_10d      udata   0x00010d       data   0x000001
     UD_abs_pic16f690_10e      udata   0x00010e       data   0x000001
     UD_abs_pic16f690_10f      udata   0x00010f       data   0x000001
     UD_abs_pic16f690_115      udata   0x000115       data   0x000001
     UD_abs_pic16f690_116      udata   0x000116       data   0x000001
     UD_abs_pic16f690_118      udata   0x000118       data   0x000001
     UD_abs_pic16f690_119      udata   0x000119       data   0x000001
     UD_abs_pic16f690_11a      udata   0x00011a       data   0x000001
     UD_abs_pic16f690_11b      udata   0x00011b       data   0x000001
     UD_abs_pic16f690_11e      udata   0x00011e       data   0x000001
     UD_abs_pic16f690_11f      udata   0x00011f       data   0x000001
     UD_abs_pic16f690_18c      udata   0x00018c       data   0x000001
     UD_abs_pic16f690_18d      udata   0x00018d       data   0x000001
     UD_abs_pic16f690_19d      udata   0x00019d       data   0x000001
     UD_abs_pic16f690_19e      udata   0x00019e       data   0x000001



                              Program Memory Usage
                               Start         End
                           ---------   ---------
                            0x000601    0x000602
                            0x000603    0x000604
                            0x000605    0x000606
                            0x000607    0x000608
                            0x000003    0x000003
                            0x00060d    0x00060d
                            0x00060e    0x00060e
                            0x0005de    0x0005e2
                            0x0005ed    0x0005f0
                            0x0005f1    0x0005f4
                            0x0005f5    0x0005f8
                            0x0005f9    0x0005fc
                            0x0005fd    0x000600
                            0x0005e3    0x0005e7
                            0x0005e8    0x0005ec
                            0x000609    0x00060a
                            0x00060b    0x00060c
                            0x0005d8    0x0005dd
                            0x0005a4    0x0005ac
                            0x00057d    0x00058d
                            0x0005b5    0x0005bb
                            0x0005bc    0x0005c2
                            0x0005c3    0x0005c9
                            0x0005ca    0x0005d0
                            0x0005d1    0x0005d7
                            0x00059a    0x0005a3
                            0x00058e    0x000599
                            0x000000    0x000002
                            0x000004    0x0000c6
                            0x0000c7    0x0002c6
                            0x0003d4    0x00041f
                            0x002007    0x002007
                            0x000420    0x00045b
                            0x0005ad    0x0005b4
                            0x0004f3    0x000522
                            0x000551    0x00057c
                            0x000363    0x0003d3
                            0x0004c2    0x0004f2
                            0x00045c    0x00048f
                            0x000523    0x000550
                            0x00060f    0x00060f
                            0x0002c7    0x000362
                            0x000490    0x0004c1
                            1553 program addresses used



                              Symbols - Sorted by Name
                     Name    Address   Location    Storage File
                ---------  ---------  ---------  --------- ---------
         END_OF_INTERRUPT   0x0000c6    program     static build/default/production/main.asm
                    PSAVE   0x000070       data     extern build/default/production/main.asm
                    SSAVE   0x000071       data     extern build/default/production/main.asm
                    STK00   0x00007f       data     extern build/default/production/main.asm
                    STK01   0x00007e       data     extern build/default/production/main.asm
                    STK02   0x00007d       data     extern build/default/production/main.asm
                    STK03   0x00007c       data     extern build/default/production/main.asm
                    STK04   0x00007b       data     extern build/default/production/main.asm
                    STK05   0x00007a       data     extern build/default/production/main.asm
                    STK06   0x000079       data     extern build/default/production/main.asm
                    STK07   0x000078       data     extern build/default/production/main.asm
                    STK08   0x000077       data     extern build/default/production/main.asm
                    STK09   0x000076       data     extern build/default/production/main.asm
                    STK10   0x000075       data     extern build/default/production/main.asm
                    STK11   0x000074       data     extern build/default/production/main.asm
                    STK12   0x000073       data     extern build/default/production/main.asm
                    WSAVE   0x000072       data     extern build/default/production/main.asm
               _00105_DS_   0x000327    program     static ../libsdcc_a-idata.asm
               _00106_DS_   0x000017    program     static build/default/production/main.asm
               _00106_DS_   0x0003b1    program     static build/default/production/str.asm
               _00107_DS_   0x0004cf    program     static ../libsdcc_a-_divuchar.asm
               _00107_DS_   0x000531    program     static ../libsdcc_a-_moduchar.asm
               _00107_DS_   0x000358    program     static ../libsdcc_a-idata.asm
               _00108_DS_   0x000065    program     static build/default/production/main.asm
               _00108_DS_   0x0002da    program     static ../libsdcc_a-idata.asm
               _00110_DS_   0x000027    program     static build/default/production/main.asm
               _00110_DS_   0x000370    program     static build/default/production/str.asm
               _00110_DS_   0x00035f    program     static ../libsdcc_a-idata.asm
               _00111_DS_   0x000367    program     static build/default/production/str.asm
               _00111_DS_   0x0004e8    program     static ../libsdcc_a-_divuchar.asm
               _00111_DS_   0x000547    program     static ../libsdcc_a-_moduchar.asm
               _00112_DS_   0x0004da    program     static ../libsdcc_a-_divuchar.asm
               _00112_DS_   0x00053b    program     static ../libsdcc_a-_moduchar.asm
               _00113_DS_   0x00006b    program     static build/default/production/main.asm
               _00113_DS_   0x0003d3    program     static build/default/production/str.asm
               _00114_DS_   0x0004ef    program     static ../libsdcc_a-_divuchar.asm
               _00114_DS_   0x00054d    program     static ../libsdcc_a-_moduchar.asm
               _00115_DS_   0x000095    program     static build/default/production/main.asm
               _00115_DS_   0x0004f2    program     static ../libsdcc_a-_divuchar.asm
               _00115_DS_   0x000550    program     static ../libsdcc_a-_moduchar.asm
               _00116_DS_   0x0000b0    program     static build/default/production/main.asm
               _00118_DS_   0x0000b6    program     static build/default/production/main.asm
               _00118_DS_   0x0003ad    program     static build/default/production/str.asm
               _00119_DS_   0x00052d    program     static ../libsdcc_a-_moduchar.asm
               _00125_DS_   0x000559    program     static build/default/production/str.asm
               _00127_DS_   0x00057c    program     static build/default/production/str.asm
               _00132_DS_   0x00051a    program     static build/default/production/str.asm
               _00137_DS_   0x0004fb    program     static build/default/production/str.asm
               _00139_DS_   0x00005f    program     static build/default/production/main.asm
               _00139_DS_   0x000522    program     static build/default/production/str.asm
               _00144_DS_   0x0005b0    program     static build/default/production/str.asm
               _00145_DS_   0x000157    program     static build/default/production/main.asm
               _00150_DS_   0x0001b0    program     static build/default/production/main.asm
               _00160_DS_   0x000209    program     static build/default/production/main.asm
               _00170_DS_   0x0002a3    program     static build/default/production/main.asm
               _00175_DS_   0x0002bb    program     static build/default/production/main.asm
               _00179_DS_   0x0000d1    program     static build/default/production/main.asm
               _00181_DS_   0x000257    program     static build/default/production/main.asm
               _00269_DS_   0x0000de    program     static build/default/production/main.asm
               _00270_DS_   0x0000e8    program     static build/default/production/main.asm
               _00271_DS_   0x0000f2    program     static build/default/production/main.asm
               _00272_DS_   0x0000fc    program     static build/default/production/main.asm
               _00273_DS_   0x000106    program     static build/default/production/main.asm
               _00274_DS_   0x000110    program     static build/default/production/main.asm
               _00275_DS_   0x00011a    program     static build/default/production/main.asm
               _00276_DS_   0x000124    program     static build/default/production/main.asm
               _00277_DS_   0x00015f    program     static build/default/production/main.asm
               _00278_DS_   0x000169    program     static build/default/production/main.asm
               _00279_DS_   0x000173    program     static build/default/production/main.asm
               _00280_DS_   0x00017d    program     static build/default/production/main.asm
               _00281_DS_   0x0001b8    program     static build/default/production/main.asm
               _00282_DS_   0x0001c2    program     static build/default/production/main.asm
               _00283_DS_   0x0001cc    program     static build/default/production/main.asm
               _00284_DS_   0x0001d6    program     static build/default/production/main.asm
               _00285_DS_   0x000211    program     static build/default/production/main.asm
               _00286_DS_   0x00021b    program     static build/default/production/main.asm
               _00287_DS_   0x000225    program     static build/default/production/main.asm
               _00288_DS_   0x00022f    program     static build/default/production/main.asm
               _00297_DS_   0x0003fb    program     static build/default/production/main.asm
               _00298_DS_   0x00041f    program     static build/default/production/main.asm
                  _ADCON0   0x00001f       data     extern pic16f690.asm
              _ADCON0bits   0x00001f       data     extern pic16f690.asm
                  _ADCON1   0x00009f       data     extern pic16f690.asm
              _ADCON1bits   0x00009f       data     extern pic16f690.asm
                  _ADRESH   0x00001e       data     extern pic16f690.asm
                  _ADRESL   0x00009e       data     extern pic16f690.asm
                   _ANSEL   0x00011e       data     extern pic16f690.asm
                  _ANSELH   0x00011f       data     extern pic16f690.asm
              _ANSELHbits   0x00011f       data     extern pic16f690.asm
               _ANSELbits   0x00011e       data     extern pic16f690.asm
                 _BAUDCTL   0x00009b       data     extern pic16f690.asm
             _BAUDCTLbits   0x00009b       data     extern pic16f690.asm
                 _CCP1CON   0x000017       data     extern pic16f690.asm
             _CCP1CONbits   0x000017       data     extern pic16f690.asm
                    _CCPR   0x000015       data     extern pic16f690.asm
                  _CCPR1H   0x000016       data     extern pic16f690.asm
                  _CCPR1L   0x000015       data     extern pic16f690.asm
                 _CM1CON0   0x000119       data     extern pic16f690.asm
             _CM1CON0bits   0x000119       data     extern pic16f690.asm
                 _CM2CON0   0x00011a       data     extern pic16f690.asm
             _CM2CON0bits   0x00011a       data     extern pic16f690.asm
                 _CM2CON1   0x00011b       data     extern pic16f690.asm
             _CM2CON1bits   0x00011b       data     extern pic16f690.asm
                  _ECCPAS   0x00001d       data     extern pic16f690.asm
              _ECCPASbits   0x00001d       data     extern pic16f690.asm
                   _EEADR   0x00010d       data     extern pic16f690.asm
                  _EEADRH   0x00010f       data     extern pic16f690.asm
                  _EECON1   0x00018c       data     extern pic16f690.asm
              _EECON1bits   0x00018c       data     extern pic16f690.asm
                  _EECON2   0x00018d       data     extern pic16f690.asm
                   _EEDAT   0x00010c       data     extern pic16f690.asm
                  _EEDATA   0x00010c       data     extern pic16f690.asm
                  _EEDATH   0x00010e       data     extern pic16f690.asm
                     _FSR   0x000004       data     extern pic16f690.asm
                    _INDF   0x000000       data     extern pic16f690.asm
                  _INTCON   0x00000b       data     extern pic16f690.asm
              _INTCONbits   0x00000b       data     extern pic16f690.asm
                     _IOC   0x000096       data     extern pic16f690.asm
                    _IOCA   0x000096       data     extern pic16f690.asm
                _IOCAbits   0x000096       data     extern pic16f690.asm
                    _IOCB   0x000116       data     extern pic16f690.asm
                _IOCBbits   0x000116       data     extern pic16f690.asm
                 _IOCbits   0x000096       data     extern pic16f690.asm
                     _MSK   0x000093       data     extern pic16f690.asm
                 _MSKbits   0x000093       data     extern pic16f690.asm
              _OPTION_REG   0x000081       data     extern pic16f690.asm
          _OPTION_REGbits   0x000081       data     extern pic16f690.asm
                  _OSCCON   0x00008f       data     extern pic16f690.asm
              _OSCCONbits   0x00008f       data     extern pic16f690.asm
                 _OSCTUNE   0x000090       data     extern pic16f690.asm
             _OSCTUNEbits   0x000090       data     extern pic16f690.asm
                     _PCL   0x000002       data     extern pic16f690.asm
                  _PCLATH   0x00000a       data     extern pic16f690.asm
                    _PCON   0x00008e       data     extern pic16f690.asm
                _PCONbits   0x00008e       data     extern pic16f690.asm
                    _PIE1   0x00008c       data     extern pic16f690.asm
                _PIE1bits   0x00008c       data     extern pic16f690.asm
                    _PIE2   0x00008d       data     extern pic16f690.asm
                _PIE2bits   0x00008d       data     extern pic16f690.asm
                    _PIR1   0x00000c       data     extern pic16f690.asm
                _PIR1bits   0x00000c       data     extern pic16f690.asm
                    _PIR2   0x00000d       data     extern pic16f690.asm
                _PIR2bits   0x00000d       data     extern pic16f690.asm
                   _PORTA   0x000005       data     extern pic16f690.asm
               _PORTAbits   0x000005       data     extern pic16f690.asm
                   _PORTB   0x000006       data     extern pic16f690.asm
               _PORTBbits   0x000006       data     extern pic16f690.asm
                   _PORTC   0x000007       data     extern pic16f690.asm
               _PORTCbits   0x000007       data     extern pic16f690.asm
                     _PR2   0x000092       data     extern pic16f690.asm
                 _PSTRCON   0x00019d       data     extern pic16f690.asm
             _PSTRCONbits   0x00019d       data     extern pic16f690.asm
                 _PWM1CON   0x00001c       data     extern pic16f690.asm
             _PWM1CONbits   0x00001c       data     extern pic16f690.asm
                   _RCREG   0x00001a       data     extern pic16f690.asm
                   _RCSTA   0x000018       data     extern pic16f690.asm
               _RCSTAbits   0x000018       data     extern pic16f690.asm
              _RecAddress   0x000039       data     extern build/default/production/main.asm
                   _SPBRG   0x000099       data     extern pic16f690.asm
                  _SPBRGH   0x00009a       data     extern pic16f690.asm
              _SPBRGHbits   0x00009a       data     extern pic16f690.asm
               _SPBRGbits   0x000099       data     extern pic16f690.asm
                 _SP_send   0x0004f3    program     extern build/default/production/str.asm
             _SP_send_buf   0x000551    program     extern build/default/production/str.asm
                   _SRCON   0x00019e       data     extern pic16f690.asm
               _SRCONbits   0x00019e       data     extern pic16f690.asm
                  _SSPADD   0x000093       data     extern pic16f690.asm
                  _SSPBUF   0x000013       data     extern pic16f690.asm
                  _SSPCON   0x000014       data     extern pic16f690.asm
              _SSPCONbits   0x000014       data     extern pic16f690.asm
                  _SSPMSK   0x000093       data     extern pic16f690.asm
              _SSPMSKbits   0x000093       data     extern pic16f690.asm
                 _SSPSTAT   0x000094       data     extern pic16f690.asm
             _SSPSTATbits   0x000094       data     extern pic16f690.asm
                  _STATUS   0x000003       data     extern pic16f690.asm
              _STATUSbits   0x000003       data     extern pic16f690.asm
_S_idata___sdcc_gsinit_startup_0008   0x0002cf    program     static ../libsdcc_a-idata.asm
_S_idata___sdcc_gsinit_startup_0030   0x0002f7    program     static ../libsdcc_a-idata.asm
_S_idata___sdcc_gsinit_startup_003F   0x000306    program     static ../libsdcc_a-idata.asm
_S_idata___sdcc_gsinit_startup_0057   0x00031e    program     static ../libsdcc_a-idata.asm
_S_idata___sdcc_gsinit_startup_0076   0x00033d    program     static ../libsdcc_a-idata.asm
_S_main__circBufPush_0022   0x0003f6    program     static build/default/production/main.asm
       _S_main__main_0005   0x0000cc    program     static build/default/production/main.asm
       _S_main__main_006E   0x000135    program     static build/default/production/main.asm
       _S_main__main_00C7   0x00018e    program     static build/default/production/main.asm
       _S_main__main_0120   0x0001e7    program     static build/default/production/main.asm
       _S_main__main_0179   0x000240    program     static build/default/production/main.asm
       _S_main__main_01B6   0x00027d    program     static build/default/production/main.asm
       _S_main__main_01D6   0x00029d    program     static build/default/production/main.asm
     _S_str__SP_send_001C   0x00050f    program     static build/default/production/str.asm
 _S_str__SP_send_buf_001C   0x00056d    program     static build/default/production/str.asm
 _S_str__SP_send_buf_0026   0x000577    program     static build/default/production/str.asm
_S_str__uint8_to_ascii_buf_001B   0x00037e    program     static build/default/production/str.asm
_S_str__uint8_to_ascii_buf_0033   0x000396    program     static build/default/production/str.asm
_S_str__uint8_to_ascii_buf_006E   0x0003d1    program     static build/default/production/str.asm
              _SetAddress   0x00058e    program     extern build/default/production/main.asm
                   _T1CON   0x000010       data     extern pic16f690.asm
               _T1CONbits   0x000010       data     extern pic16f690.asm
                   _T2CON   0x000012       data     extern pic16f690.asm
               _T2CONbits   0x000012       data     extern pic16f690.asm
                    _TMR0   0x000001       data     extern pic16f690.asm
                    _TMR1   0x00000e       data     extern pic16f690.asm
                   _TMR1H   0x00000f       data     extern pic16f690.asm
                   _TMR1L   0x00000e       data     extern pic16f690.asm
                    _TMR2   0x000011       data     extern pic16f690.asm
                   _TRISA   0x000085       data     extern pic16f690.asm
               _TRISAbits   0x000085       data     extern pic16f690.asm
                   _TRISB   0x000086       data     extern pic16f690.asm
               _TRISBbits   0x000086       data     extern pic16f690.asm
                   _TRISC   0x000087       data     extern pic16f690.asm
               _TRISCbits   0x000087       data     extern pic16f690.asm
                   _TXREG   0x000019       data     extern pic16f690.asm
                   _TXSTA   0x000098       data     extern pic16f690.asm
               _TXSTAbits   0x000098       data     extern pic16f690.asm
                   _VRCON   0x000118       data     extern pic16f690.asm
               _VRCONbits   0x000118       data     extern pic16f690.asm
                  _WDTCON   0x000097       data     extern pic16f690.asm
              _WDTCONbits   0x000097       data     extern pic16f690.asm
                     _WPU   0x000095       data     extern pic16f690.asm
                    _WPUA   0x000095       data     extern pic16f690.asm
                _WPUAbits   0x000095       data     extern pic16f690.asm
                    _WPUB   0x000115       data     extern pic16f690.asm
                _WPUBbits   0x000115       data     extern pic16f690.asm
                 _WPUbits   0x000095       data     extern pic16f690.asm
        ___sdcc_saved_fsr   0x0000bc       data     extern libsdcc_a-shadowregs.asm
            __codeptrget1   0x00046a    program     extern _gptrget1.S
            __codeptrget2   0x000481    program     static _gptrget2.S
            __dataptrget1   0x000463    program     static _gptrget1.S
            __dataptrget2   0x000477    program     static _gptrget2.S
               __divuchar   0x0004c2    program     extern ../libsdcc_a-_divuchar.asm
                __gptrget   0x00045c    program     extern _gptrget1.S
               __gptrget1   0x00045c    program     extern _gptrget1.S
               __gptrget2   0x00046f    program     extern _gptrget2.S
               __moduchar   0x000523    program     extern ../libsdcc_a-_moduchar.asm
    __sdcc_gsinit_startup   0x0002c7    program     extern ../libsdcc_a-idata.asm
         __sdcc_interrupt   0x000004    program     static build/default/production/main.asm
                _bitfield   0x0000b8       data     extern build/default/production/main.asm
                     _buf   0x00004d       data     extern build/default/production/main.asm
                 _buf_err   0x00057d    program     extern build/default/production/main.asm
                _buf_head   0x0000b9       data     extern build/default/production/main.asm
                _buf_tail   0x0000ba       data     extern build/default/production/main.asm
                   _cinit   0x000490    program     extern 
             _circBufPush   0x0003d4    program     extern build/default/production/main.asm
                   _enter   0x00060b    program     extern build/default/production/main.asm
             _force_cinit   0x0000bd       data     static ../libsdcc_a-idata.asm
                    _init   0x000420    program     extern build/default/production/init.asm
                 _int_err   0x0005a4    program     extern build/default/production/main.asm
           _int_error_cnt   0x0000bb       data     extern build/default/production/main.asm
                   _light   0x0005d1    program     extern build/default/production/main.asm
                    _main   0x0000c7    program     extern build/default/production/main.asm
                    _pie1   0x0005c3    program     extern build/default/production/main.asm
                    _pie2   0x0005ca    program     extern build/default/production/main.asm
                    _pir1   0x0005b5    program     extern build/default/production/main.asm
                    _pir2   0x0005bc    program     extern build/default/production/main.asm
            _receive_intr   0x000004    program     extern build/default/production/main.asm
                   _strV0   0x0005ed    program     extern build/default/production/main.asm
                   _strV1   0x0005f1    program     extern build/default/production/main.asm
                   _strVF   0x0005f5    program     extern build/default/production/main.asm
                    _stri   0x0005de    program     extern build/default/production/main.asm
                    _strt   0x0005fd    program     extern build/default/production/main.asm
                   _strt1   0x0005e8    program     extern build/default/production/main.asm
                    _strw   0x0005f9    program     extern build/default/production/main.asm
                   _strw1   0x0005e3    program     extern build/default/production/main.asm
                    _sync   0x0005d8    program     extern build/default/production/main.asm
                       _t   0x0000b2       data     extern build/default/production/main.asm
                      _t1   0x0000b6       data     extern build/default/production/main.asm
                     _tab   0x000609    program     extern build/default/production/main.asm
                _tim0_owf   0x00059a    program     extern build/default/production/main.asm
              _uint8_send   0x0005ad    program     extern build/default/production/str.asm
      _uint8_to_ascii_buf   0x000363    program     extern build/default/production/str.asm
_uint8_to_ascii_buf_number_1_7   0x000035       data     static build/default/production/str.asm
                       _w   0x0000b0       data     extern build/default/production/main.asm
                      _w1   0x0000b4       data     extern build/default/production/main.asm
                  r0x1000   0x00006b       data     static ../libsdcc_a-_divuchar.asm
                  r0x1000   0x0000ac       data     static ../libsdcc_a-_moduchar.asm
                  r0x1000   0x0000a1       data     static ../libsdcc_a-idata.asm
                  r0x1001   0x00006c       data     static ../libsdcc_a-_divuchar.asm
                  r0x1001   0x0000ad       data     static ../libsdcc_a-_moduchar.asm
                  r0x1001   0x0000a0       data     static ../libsdcc_a-idata.asm
                  r0x1002   0x00006d       data     static ../libsdcc_a-_divuchar.asm
                  r0x1002   0x0000ae       data     static ../libsdcc_a-_moduchar.asm
                  r0x1002   0x0000a2       data     static ../libsdcc_a-idata.asm
                  r0x1003   0x00006e       data     static ../libsdcc_a-_divuchar.asm
                  r0x1003   0x0000af       data     static ../libsdcc_a-_moduchar.asm
                  r0x1003   0x0000a3       data     static ../libsdcc_a-idata.asm
                  r0x1004   0x00002f       data     static build/default/production/str.asm
                  r0x1004   0x00006f       data     static ../libsdcc_a-_divuchar.asm
                  r0x1004   0x0000a4       data     static ../libsdcc_a-idata.asm
                  r0x1005   0x00002e       data     static build/default/production/str.asm
                  r0x1005   0x0000a5       data     static ../libsdcc_a-idata.asm
                  r0x1006   0x00002d       data     static build/default/production/str.asm
                  r0x1006   0x0000a7       data     static ../libsdcc_a-idata.asm
                  r0x1007   0x000030       data     static build/default/production/str.asm
                  r0x1007   0x0000a6       data     static ../libsdcc_a-idata.asm
                  r0x1008   0x000031       data     static build/default/production/str.asm
                  r0x1008   0x0000a9       data     static ../libsdcc_a-idata.asm
                  r0x1009   0x000032       data     static build/default/production/str.asm
                  r0x1009   0x0000a8       data     static ../libsdcc_a-idata.asm
                  r0x100A   0x000033       data     static build/default/production/str.asm
                  r0x100A   0x0000ab       data     static ../libsdcc_a-idata.asm
                  r0x100B   0x000034       data     static build/default/production/str.asm
                  r0x100B   0x0000aa       data     static ../libsdcc_a-idata.asm
                  r0x100C   0x000027       data     static build/default/production/str.asm
                  r0x100D   0x000026       data     static build/default/production/str.asm
                  r0x100E   0x000025       data     static build/default/production/str.asm
                  r0x100F   0x000028       data     static build/default/production/str.asm
                  r0x1010   0x000029       data     static build/default/production/str.asm
                  r0x1011   0x00002a       data     static build/default/production/str.asm
                  r0x1012   0x00002b       data     static build/default/production/str.asm
                  r0x1013   0x00002c       data     static build/default/production/str.asm
                  r0x1014   0x000020       data     static build/default/production/str.asm
                  r0x1015   0x000021       data     static build/default/production/str.asm
                  r0x1016   0x000022       data     static build/default/production/str.asm
                  r0x1017   0x000023       data     static build/default/production/str.asm
                  r0x1018   0x000024       data     static build/default/production/str.asm
                  r0x1031   0x000066       data     static build/default/production/main.asm
                  r0x1032   0x000067       data     static build/default/production/main.asm
                  r0x1033   0x000069       data     static build/default/production/main.asm
                  r0x1034   0x000068       data     static build/default/production/main.asm
                  r0x1035   0x00006a       data     static build/default/production/main.asm
                  r0x1036   0x00005f       data     static build/default/production/main.asm
                  r0x1037   0x000061       data     static build/default/production/main.asm
                  r0x1038   0x000060       data     static build/default/production/main.asm
                  r0x1039   0x000062       data     static build/default/production/main.asm
                  r0x103A   0x000063       data     static build/default/production/main.asm
                  r0x103B   0x000064       data     static build/default/production/main.asm
                  r0x103C   0x000065       data     static build/default/production/main.asm
                  r0x103E   0x00005d       data     static build/default/production/main.asm
                  r0x103F   0x00005e       data     static build/default/production/main.asm



                              Symbols - Sorted by Address
                     Name    Address   Location    Storage File
                ---------  ---------  ---------  --------- ---------
                    _INDF   0x000000       data     extern pic16f690.asm
                    _TMR0   0x000001       data     extern pic16f690.asm
                     _PCL   0x000002       data     extern pic16f690.asm
                  _STATUS   0x000003       data     extern pic16f690.asm
              _STATUSbits   0x000003       data     extern pic16f690.asm
                     _FSR   0x000004       data     extern pic16f690.asm
         __sdcc_interrupt   0x000004    program     static build/default/production/main.asm
            _receive_intr   0x000004    program     extern build/default/production/main.asm
                   _PORTA   0x000005       data     extern pic16f690.asm
               _PORTAbits   0x000005       data     extern pic16f690.asm
                   _PORTB   0x000006       data     extern pic16f690.asm
               _PORTBbits   0x000006       data     extern pic16f690.asm
                   _PORTC   0x000007       data     extern pic16f690.asm
               _PORTCbits   0x000007       data     extern pic16f690.asm
                  _PCLATH   0x00000a       data     extern pic16f690.asm
                  _INTCON   0x00000b       data     extern pic16f690.asm
              _INTCONbits   0x00000b       data     extern pic16f690.asm
                    _PIR1   0x00000c       data     extern pic16f690.asm
                _PIR1bits   0x00000c       data     extern pic16f690.asm
                    _PIR2   0x00000d       data     extern pic16f690.asm
                _PIR2bits   0x00000d       data     extern pic16f690.asm
                    _TMR1   0x00000e       data     extern pic16f690.asm
                   _TMR1L   0x00000e       data     extern pic16f690.asm
                   _TMR1H   0x00000f       data     extern pic16f690.asm
                   _T1CON   0x000010       data     extern pic16f690.asm
               _T1CONbits   0x000010       data     extern pic16f690.asm
                    _TMR2   0x000011       data     extern pic16f690.asm
                   _T2CON   0x000012       data     extern pic16f690.asm
               _T2CONbits   0x000012       data     extern pic16f690.asm
                  _SSPBUF   0x000013       data     extern pic16f690.asm
                  _SSPCON   0x000014       data     extern pic16f690.asm
              _SSPCONbits   0x000014       data     extern pic16f690.asm
                    _CCPR   0x000015       data     extern pic16f690.asm
                  _CCPR1L   0x000015       data     extern pic16f690.asm
                  _CCPR1H   0x000016       data     extern pic16f690.asm
               _00106_DS_   0x000017    program     static build/default/production/main.asm
                 _CCP1CON   0x000017       data     extern pic16f690.asm
             _CCP1CONbits   0x000017       data     extern pic16f690.asm
                   _RCSTA   0x000018       data     extern pic16f690.asm
               _RCSTAbits   0x000018       data     extern pic16f690.asm
                   _TXREG   0x000019       data     extern pic16f690.asm
                   _RCREG   0x00001a       data     extern pic16f690.asm
                 _PWM1CON   0x00001c       data     extern pic16f690.asm
             _PWM1CONbits   0x00001c       data     extern pic16f690.asm
                  _ECCPAS   0x00001d       data     extern pic16f690.asm
              _ECCPASbits   0x00001d       data     extern pic16f690.asm
                  _ADRESH   0x00001e       data     extern pic16f690.asm
                  _ADCON0   0x00001f       data     extern pic16f690.asm
              _ADCON0bits   0x00001f       data     extern pic16f690.asm
                  r0x1014   0x000020       data     static build/default/production/str.asm
                  r0x1015   0x000021       data     static build/default/production/str.asm
                  r0x1016   0x000022       data     static build/default/production/str.asm
                  r0x1017   0x000023       data     static build/default/production/str.asm
                  r0x1018   0x000024       data     static build/default/production/str.asm
                  r0x100E   0x000025       data     static build/default/production/str.asm
                  r0x100D   0x000026       data     static build/default/production/str.asm
               _00110_DS_   0x000027    program     static build/default/production/main.asm
                  r0x100C   0x000027       data     static build/default/production/str.asm
                  r0x100F   0x000028       data     static build/default/production/str.asm
                  r0x1010   0x000029       data     static build/default/production/str.asm
                  r0x1011   0x00002a       data     static build/default/production/str.asm
                  r0x1012   0x00002b       data     static build/default/production/str.asm
                  r0x1013   0x00002c       data     static build/default/production/str.asm
                  r0x1006   0x00002d       data     static build/default/production/str.asm
                  r0x1005   0x00002e       data     static build/default/production/str.asm
                  r0x1004   0x00002f       data     static build/default/production/str.asm
                  r0x1007   0x000030       data     static build/default/production/str.asm
                  r0x1008   0x000031       data     static build/default/production/str.asm
                  r0x1009   0x000032       data     static build/default/production/str.asm
                  r0x100A   0x000033       data     static build/default/production/str.asm
                  r0x100B   0x000034       data     static build/default/production/str.asm
_uint8_to_ascii_buf_number_1_7   0x000035       data     static build/default/production/str.asm
              _RecAddress   0x000039       data     extern build/default/production/main.asm
                     _buf   0x00004d       data     extern build/default/production/main.asm
                  r0x103E   0x00005d       data     static build/default/production/main.asm
                  r0x103F   0x00005e       data     static build/default/production/main.asm
               _00139_DS_   0x00005f    program     static build/default/production/main.asm
                  r0x1036   0x00005f       data     static build/default/production/main.asm
                  r0x1038   0x000060       data     static build/default/production/main.asm
                  r0x1037   0x000061       data     static build/default/production/main.asm
                  r0x1039   0x000062       data     static build/default/production/main.asm
                  r0x103A   0x000063       data     static build/default/production/main.asm
                  r0x103B   0x000064       data     static build/default/production/main.asm
               _00108_DS_   0x000065    program     static build/default/production/main.asm
                  r0x103C   0x000065       data     static build/default/production/main.asm
                  r0x1031   0x000066       data     static build/default/production/main.asm
                  r0x1032   0x000067       data     static build/default/production/main.asm
                  r0x1034   0x000068       data     static build/default/production/main.asm
                  r0x1033   0x000069       data     static build/default/production/main.asm
                  r0x1035   0x00006a       data     static build/default/production/main.asm
               _00113_DS_   0x00006b    program     static build/default/production/main.asm
                  r0x1000   0x00006b       data     static ../libsdcc_a-_divuchar.asm
                  r0x1001   0x00006c       data     static ../libsdcc_a-_divuchar.asm
                  r0x1002   0x00006d       data     static ../libsdcc_a-_divuchar.asm
                  r0x1003   0x00006e       data     static ../libsdcc_a-_divuchar.asm
                  r0x1004   0x00006f       data     static ../libsdcc_a-_divuchar.asm
                    PSAVE   0x000070       data     extern build/default/production/main.asm
                    SSAVE   0x000071       data     extern build/default/production/main.asm
                    WSAVE   0x000072       data     extern build/default/production/main.asm
                    STK12   0x000073       data     extern build/default/production/main.asm
                    STK11   0x000074       data     extern build/default/production/main.asm
                    STK10   0x000075       data     extern build/default/production/main.asm
                    STK09   0x000076       data     extern build/default/production/main.asm
                    STK08   0x000077       data     extern build/default/production/main.asm
                    STK07   0x000078       data     extern build/default/production/main.asm
                    STK06   0x000079       data     extern build/default/production/main.asm
                    STK05   0x00007a       data     extern build/default/production/main.asm
                    STK04   0x00007b       data     extern build/default/production/main.asm
                    STK03   0x00007c       data     extern build/default/production/main.asm
                    STK02   0x00007d       data     extern build/default/production/main.asm
                    STK01   0x00007e       data     extern build/default/production/main.asm
                    STK00   0x00007f       data     extern build/default/production/main.asm
              _OPTION_REG   0x000081       data     extern pic16f690.asm
          _OPTION_REGbits   0x000081       data     extern pic16f690.asm
                   _TRISA   0x000085       data     extern pic16f690.asm
               _TRISAbits   0x000085       data     extern pic16f690.asm
                   _TRISB   0x000086       data     extern pic16f690.asm
               _TRISBbits   0x000086       data     extern pic16f690.asm
                   _TRISC   0x000087       data     extern pic16f690.asm
               _TRISCbits   0x000087       data     extern pic16f690.asm
                    _PIE1   0x00008c       data     extern pic16f690.asm
                _PIE1bits   0x00008c       data     extern pic16f690.asm
                    _PIE2   0x00008d       data     extern pic16f690.asm
                _PIE2bits   0x00008d       data     extern pic16f690.asm
                    _PCON   0x00008e       data     extern pic16f690.asm
                _PCONbits   0x00008e       data     extern pic16f690.asm
                  _OSCCON   0x00008f       data     extern pic16f690.asm
              _OSCCONbits   0x00008f       data     extern pic16f690.asm
                 _OSCTUNE   0x000090       data     extern pic16f690.asm
             _OSCTUNEbits   0x000090       data     extern pic16f690.asm
                     _PR2   0x000092       data     extern pic16f690.asm
                     _MSK   0x000093       data     extern pic16f690.asm
                 _MSKbits   0x000093       data     extern pic16f690.asm
                  _SSPADD   0x000093       data     extern pic16f690.asm
                  _SSPMSK   0x000093       data     extern pic16f690.asm
              _SSPMSKbits   0x000093       data     extern pic16f690.asm
                 _SSPSTAT   0x000094       data     extern pic16f690.asm
             _SSPSTATbits   0x000094       data     extern pic16f690.asm
               _00115_DS_   0x000095    program     static build/default/production/main.asm
                     _WPU   0x000095       data     extern pic16f690.asm
                    _WPUA   0x000095       data     extern pic16f690.asm
                _WPUAbits   0x000095       data     extern pic16f690.asm
                 _WPUbits   0x000095       data     extern pic16f690.asm
                     _IOC   0x000096       data     extern pic16f690.asm
                    _IOCA   0x000096       data     extern pic16f690.asm
                _IOCAbits   0x000096       data     extern pic16f690.asm
                 _IOCbits   0x000096       data     extern pic16f690.asm
                  _WDTCON   0x000097       data     extern pic16f690.asm
              _WDTCONbits   0x000097       data     extern pic16f690.asm
                   _TXSTA   0x000098       data     extern pic16f690.asm
               _TXSTAbits   0x000098       data     extern pic16f690.asm
                   _SPBRG   0x000099       data     extern pic16f690.asm
               _SPBRGbits   0x000099       data     extern pic16f690.asm
                  _SPBRGH   0x00009a       data     extern pic16f690.asm
              _SPBRGHbits   0x00009a       data     extern pic16f690.asm
                 _BAUDCTL   0x00009b       data     extern pic16f690.asm
             _BAUDCTLbits   0x00009b       data     extern pic16f690.asm
                  _ADRESL   0x00009e       data     extern pic16f690.asm
                  _ADCON1   0x00009f       data     extern pic16f690.asm
              _ADCON1bits   0x00009f       data     extern pic16f690.asm
                  r0x1001   0x0000a0       data     static ../libsdcc_a-idata.asm
                  r0x1000   0x0000a1       data     static ../libsdcc_a-idata.asm
                  r0x1002   0x0000a2       data     static ../libsdcc_a-idata.asm
                  r0x1003   0x0000a3       data     static ../libsdcc_a-idata.asm
                  r0x1004   0x0000a4       data     static ../libsdcc_a-idata.asm
                  r0x1005   0x0000a5       data     static ../libsdcc_a-idata.asm
                  r0x1007   0x0000a6       data     static ../libsdcc_a-idata.asm
                  r0x1006   0x0000a7       data     static ../libsdcc_a-idata.asm
                  r0x1009   0x0000a8       data     static ../libsdcc_a-idata.asm
                  r0x1008   0x0000a9       data     static ../libsdcc_a-idata.asm
                  r0x100B   0x0000aa       data     static ../libsdcc_a-idata.asm
                  r0x100A   0x0000ab       data     static ../libsdcc_a-idata.asm
                  r0x1000   0x0000ac       data     static ../libsdcc_a-_moduchar.asm
                  r0x1001   0x0000ad       data     static ../libsdcc_a-_moduchar.asm
                  r0x1002   0x0000ae       data     static ../libsdcc_a-_moduchar.asm
                  r0x1003   0x0000af       data     static ../libsdcc_a-_moduchar.asm
               _00116_DS_   0x0000b0    program     static build/default/production/main.asm
                       _w   0x0000b0       data     extern build/default/production/main.asm
                       _t   0x0000b2       data     extern build/default/production/main.asm
                      _w1   0x0000b4       data     extern build/default/production/main.asm
               _00118_DS_   0x0000b6    program     static build/default/production/main.asm
                      _t1   0x0000b6       data     extern build/default/production/main.asm
                _bitfield   0x0000b8       data     extern build/default/production/main.asm
                _buf_head   0x0000b9       data     extern build/default/production/main.asm
                _buf_tail   0x0000ba       data     extern build/default/production/main.asm
           _int_error_cnt   0x0000bb       data     extern build/default/production/main.asm
        ___sdcc_saved_fsr   0x0000bc       data     extern libsdcc_a-shadowregs.asm
             _force_cinit   0x0000bd       data     static ../libsdcc_a-idata.asm
         END_OF_INTERRUPT   0x0000c6    program     static build/default/production/main.asm
                    _main   0x0000c7    program     extern build/default/production/main.asm
       _S_main__main_0005   0x0000cc    program     static build/default/production/main.asm
               _00179_DS_   0x0000d1    program     static build/default/production/main.asm
               _00269_DS_   0x0000de    program     static build/default/production/main.asm
               _00270_DS_   0x0000e8    program     static build/default/production/main.asm
               _00271_DS_   0x0000f2    program     static build/default/production/main.asm
               _00272_DS_   0x0000fc    program     static build/default/production/main.asm
               _00273_DS_   0x000106    program     static build/default/production/main.asm
                   _EEDAT   0x00010c       data     extern pic16f690.asm
                  _EEDATA   0x00010c       data     extern pic16f690.asm
                   _EEADR   0x00010d       data     extern pic16f690.asm
                  _EEDATH   0x00010e       data     extern pic16f690.asm
                  _EEADRH   0x00010f       data     extern pic16f690.asm
               _00274_DS_   0x000110    program     static build/default/production/main.asm
                    _WPUB   0x000115       data     extern pic16f690.asm
                _WPUBbits   0x000115       data     extern pic16f690.asm
                    _IOCB   0x000116       data     extern pic16f690.asm
                _IOCBbits   0x000116       data     extern pic16f690.asm
                   _VRCON   0x000118       data     extern pic16f690.asm
               _VRCONbits   0x000118       data     extern pic16f690.asm
                 _CM1CON0   0x000119       data     extern pic16f690.asm
             _CM1CON0bits   0x000119       data     extern pic16f690.asm
               _00275_DS_   0x00011a    program     static build/default/production/main.asm
                 _CM2CON0   0x00011a       data     extern pic16f690.asm
             _CM2CON0bits   0x00011a       data     extern pic16f690.asm
                 _CM2CON1   0x00011b       data     extern pic16f690.asm
             _CM2CON1bits   0x00011b       data     extern pic16f690.asm
                   _ANSEL   0x00011e       data     extern pic16f690.asm
               _ANSELbits   0x00011e       data     extern pic16f690.asm
                  _ANSELH   0x00011f       data     extern pic16f690.asm
              _ANSELHbits   0x00011f       data     extern pic16f690.asm
               _00276_DS_   0x000124    program     static build/default/production/main.asm
       _S_main__main_006E   0x000135    program     static build/default/production/main.asm
               _00145_DS_   0x000157    program     static build/default/production/main.asm
               _00277_DS_   0x00015f    program     static build/default/production/main.asm
               _00278_DS_   0x000169    program     static build/default/production/main.asm
               _00279_DS_   0x000173    program     static build/default/production/main.asm
               _00280_DS_   0x00017d    program     static build/default/production/main.asm
                  _EECON1   0x00018c       data     extern pic16f690.asm
              _EECON1bits   0x00018c       data     extern pic16f690.asm
                  _EECON2   0x00018d       data     extern pic16f690.asm
       _S_main__main_00C7   0x00018e    program     static build/default/production/main.asm
                 _PSTRCON   0x00019d       data     extern pic16f690.asm
             _PSTRCONbits   0x00019d       data     extern pic16f690.asm
                   _SRCON   0x00019e       data     extern pic16f690.asm
               _SRCONbits   0x00019e       data     extern pic16f690.asm
               _00150_DS_   0x0001b0    program     static build/default/production/main.asm
               _00281_DS_   0x0001b8    program     static build/default/production/main.asm
               _00282_DS_   0x0001c2    program     static build/default/production/main.asm
               _00283_DS_   0x0001cc    program     static build/default/production/main.asm
               _00284_DS_   0x0001d6    program     static build/default/production/main.asm
       _S_main__main_0120   0x0001e7    program     static build/default/production/main.asm
               _00160_DS_   0x000209    program     static build/default/production/main.asm
               _00285_DS_   0x000211    program     static build/default/production/main.asm
               _00286_DS_   0x00021b    program     static build/default/production/main.asm
               _00287_DS_   0x000225    program     static build/default/production/main.asm
               _00288_DS_   0x00022f    program     static build/default/production/main.asm
       _S_main__main_0179   0x000240    program     static build/default/production/main.asm
               _00181_DS_   0x000257    program     static build/default/production/main.asm
       _S_main__main_01B6   0x00027d    program     static build/default/production/main.asm
       _S_main__main_01D6   0x00029d    program     static build/default/production/main.asm
               _00170_DS_   0x0002a3    program     static build/default/production/main.asm
               _00175_DS_   0x0002bb    program     static build/default/production/main.asm
    __sdcc_gsinit_startup   0x0002c7    program     extern ../libsdcc_a-idata.asm
_S_idata___sdcc_gsinit_startup_0008   0x0002cf    program     static ../libsdcc_a-idata.asm
               _00108_DS_   0x0002da    program     static ../libsdcc_a-idata.asm
_S_idata___sdcc_gsinit_startup_0030   0x0002f7    program     static ../libsdcc_a-idata.asm
_S_idata___sdcc_gsinit_startup_003F   0x000306    program     static ../libsdcc_a-idata.asm
_S_idata___sdcc_gsinit_startup_0057   0x00031e    program     static ../libsdcc_a-idata.asm
               _00105_DS_   0x000327    program     static ../libsdcc_a-idata.asm
_S_idata___sdcc_gsinit_startup_0076   0x00033d    program     static ../libsdcc_a-idata.asm
               _00107_DS_   0x000358    program     static ../libsdcc_a-idata.asm
               _00110_DS_   0x00035f    program     static ../libsdcc_a-idata.asm
      _uint8_to_ascii_buf   0x000363    program     extern build/default/production/str.asm
               _00111_DS_   0x000367    program     static build/default/production/str.asm
               _00110_DS_   0x000370    program     static build/default/production/str.asm
_S_str__uint8_to_ascii_buf_001B   0x00037e    program     static build/default/production/str.asm
_S_str__uint8_to_ascii_buf_0033   0x000396    program     static build/default/production/str.asm
               _00118_DS_   0x0003ad    program     static build/default/production/str.asm
               _00106_DS_   0x0003b1    program     static build/default/production/str.asm
_S_str__uint8_to_ascii_buf_006E   0x0003d1    program     static build/default/production/str.asm
               _00113_DS_   0x0003d3    program     static build/default/production/str.asm
             _circBufPush   0x0003d4    program     extern build/default/production/main.asm
_S_main__circBufPush_0022   0x0003f6    program     static build/default/production/main.asm
               _00297_DS_   0x0003fb    program     static build/default/production/main.asm
               _00298_DS_   0x00041f    program     static build/default/production/main.asm
                    _init   0x000420    program     extern build/default/production/init.asm
                __gptrget   0x00045c    program     extern _gptrget1.S
               __gptrget1   0x00045c    program     extern _gptrget1.S
            __dataptrget1   0x000463    program     static _gptrget1.S
            __codeptrget1   0x00046a    program     extern _gptrget1.S
               __gptrget2   0x00046f    program     extern _gptrget2.S
            __dataptrget2   0x000477    program     static _gptrget2.S
            __codeptrget2   0x000481    program     static _gptrget2.S
                   _cinit   0x000490    program     extern 
               __divuchar   0x0004c2    program     extern ../libsdcc_a-_divuchar.asm
               _00107_DS_   0x0004cf    program     static ../libsdcc_a-_divuchar.asm
               _00112_DS_   0x0004da    program     static ../libsdcc_a-_divuchar.asm
               _00111_DS_   0x0004e8    program     static ../libsdcc_a-_divuchar.asm
               _00114_DS_   0x0004ef    program     static ../libsdcc_a-_divuchar.asm
               _00115_DS_   0x0004f2    program     static ../libsdcc_a-_divuchar.asm
                 _SP_send   0x0004f3    program     extern build/default/production/str.asm
               _00137_DS_   0x0004fb    program     static build/default/production/str.asm
     _S_str__SP_send_001C   0x00050f    program     static build/default/production/str.asm
               _00132_DS_   0x00051a    program     static build/default/production/str.asm
               _00139_DS_   0x000522    program     static build/default/production/str.asm
               __moduchar   0x000523    program     extern ../libsdcc_a-_moduchar.asm
               _00119_DS_   0x00052d    program     static ../libsdcc_a-_moduchar.asm
               _00107_DS_   0x000531    program     static ../libsdcc_a-_moduchar.asm
               _00112_DS_   0x00053b    program     static ../libsdcc_a-_moduchar.asm
               _00111_DS_   0x000547    program     static ../libsdcc_a-_moduchar.asm
               _00114_DS_   0x00054d    program     static ../libsdcc_a-_moduchar.asm
               _00115_DS_   0x000550    program     static ../libsdcc_a-_moduchar.asm
             _SP_send_buf   0x000551    program     extern build/default/production/str.asm
               _00125_DS_   0x000559    program     static build/default/production/str.asm
 _S_str__SP_send_buf_001C   0x00056d    program     static build/default/production/str.asm
 _S_str__SP_send_buf_0026   0x000577    program     static build/default/production/str.asm
               _00127_DS_   0x00057c    program     static build/default/production/str.asm
                 _buf_err   0x00057d    program     extern build/default/production/main.asm
              _SetAddress   0x00058e    program     extern build/default/production/main.asm
                _tim0_owf   0x00059a    program     extern build/default/production/main.asm
                 _int_err   0x0005a4    program     extern build/default/production/main.asm
              _uint8_send   0x0005ad    program     extern build/default/production/str.asm
               _00144_DS_   0x0005b0    program     static build/default/production/str.asm
                    _pir1   0x0005b5    program     extern build/default/production/main.asm
                    _pir2   0x0005bc    program     extern build/default/production/main.asm
                    _pie1   0x0005c3    program     extern build/default/production/main.asm
                    _pie2   0x0005ca    program     extern build/default/production/main.asm
                   _light   0x0005d1    program     extern build/default/production/main.asm
                    _sync   0x0005d8    program     extern build/default/production/main.asm
                    _stri   0x0005de    program     extern build/default/production/main.asm
                   _strw1   0x0005e3    program     extern build/default/production/main.asm
                   _strt1   0x0005e8    program     extern build/default/production/main.asm
                   _strV0   0x0005ed    program     extern build/default/production/main.asm
                   _strV1   0x0005f1    program     extern build/default/production/main.asm
                   _strVF   0x0005f5    program     extern build/default/production/main.asm
                    _strw   0x0005f9    program     extern build/default/production/main.asm
                    _strt   0x0005fd    program     extern build/default/production/main.asm
                     _tab   0x000609    program     extern build/default/production/main.asm
                   _enter   0x00060b    program     extern build/default/production/main.asm


